	.file	"crc.c"
	.text
Ltext0:
	.section .rdata,"dr"
	.align 4
_CRC_GENPOLY_8:
	.byte	0
	.byte	2
	.byte	4
	.byte	6
	.byte	7
_CRC_GENPOLY_16:
	.byte	0
	.byte	5
	.byte	12
	.align 4
_CRC_GENPOLY_24:
	.byte	0
	.byte	1
	.byte	5
	.byte	6
	.byte	23
	.align 4
_CRC_GENPOLY_32:
	.byte	0
	.byte	1
	.byte	2
	.byte	4
	.byte	5
	.byte	7
	.byte	8
	.byte	10
	.byte	11
	.byte	12
	.byte	16
	.byte	22
	.byte	23
	.byte	26
	.align 4
_CRC_GENPOLY_64:
	.byte	0
	.byte	1
	.byte	3
	.byte	4
	.text
	.globl	_Crc_ListParameters
	.def	_Crc_ListParameters;	.scl	2;	.type	32;	.endef
_Crc_ListParameters:
LFB18:
	.file 1 "src/crc.c"
	.loc 1 55 0
	.cfi_startproc
	pushl	%ebp
	.cfi_def_cfa_offset 8
	.cfi_offset 5, -8
	movl	%esp, %ebp
	.cfi_def_cfa_register 5
	subl	$40, %esp
	.loc 1 56 0
	movl	$0, 4(%esp)
	movl	$_Crc_ListParameters, (%esp)
	call	_Debug_SetWatermark
	.loc 1 58 0
	movl	$0, -12(%ebp)
	.loc 1 60 0
	cmpl	$0, 8(%ebp)
	je	L2
	.loc 1 62 0
	movl	8(%ebp), %eax
	movl	$16, (%eax)
	.loc 1 64 0
	movl	8(%ebp), %eax
	movl	(%eax), %eax
	cmpl	$24, %eax
	je	L4
	cmpl	$24, %eax
	ja	L5
	cmpl	$8, %eax
	je	L6
	cmpl	$16, %eax
	je	L7
	jmp	L3
L5:
	cmpl	$32, %eax
	je	L8
	cmpl	$64, %eax
	je	L9
	jmp	L3
L6:
	.loc 1 67 0
	movl	8(%ebp), %eax
	movl	$_CRC_GENPOLY_8, 4(%eax)
	.loc 1 68 0
	movl	8(%ebp), %eax
	movb	$5, 8(%eax)
	.loc 1 69 0
	jmp	L11
L7:
	.loc 1 72 0
	movl	8(%ebp), %eax
	movl	$_CRC_GENPOLY_16, 4(%eax)
	.loc 1 73 0
	movl	8(%ebp), %eax
	movb	$3, 8(%eax)
	.loc 1 74 0
	jmp	L11
L4:
	.loc 1 77 0
	movl	8(%ebp), %eax
	movl	$_CRC_GENPOLY_24, 4(%eax)
	.loc 1 78 0
	movl	8(%ebp), %eax
	movb	$5, 8(%eax)
	.loc 1 79 0
	jmp	L11
L8:
	.loc 1 82 0
	movl	8(%ebp), %eax
	movl	$_CRC_GENPOLY_32, 4(%eax)
	.loc 1 83 0
	movl	8(%ebp), %eax
	movb	$14, 8(%eax)
	.loc 1 84 0
	jmp	L11
L9:
	.loc 1 87 0
	movl	8(%ebp), %eax
	movl	$_CRC_GENPOLY_64, 4(%eax)
	.loc 1 88 0
	movl	8(%ebp), %eax
	movb	$4, 8(%eax)
	.loc 1 89 0
	jmp	L11
L3:
	.loc 1 92 0
	movl	$14, -12(%ebp)
	.loc 1 93 0
	nop
	jmp	L11
L2:
	.loc 1 98 0
	movl	$1, -12(%ebp)
L11:
	.loc 1 101 0
	movl	-12(%ebp), %eax
	movl	%eax, (%esp)
	call	_Error_HandleErr
	.loc 1 102 0
	leave
	.cfi_restore 5
	.cfi_def_cfa 4, 4
	ret
	.cfi_endproc
LFE18:
	.globl	_Crc_CalculateChecksum
	.def	_Crc_CalculateChecksum;	.scl	2;	.type	32;	.endef
_Crc_CalculateChecksum:
LFB19:
	.loc 1 115 0
	.cfi_startproc
	pushl	%ebp
	.cfi_def_cfa_offset 8
	.cfi_offset 5, -8
	movl	%esp, %ebp
	.cfi_def_cfa_register 5
	pushl	%ebx
	subl	$68, %esp
	.cfi_offset 3, -12
	.loc 1 115 0
	movl	%esp, %eax
	movl	%eax, %ebx
	.loc 1 116 0
	movl	$0, 4(%esp)
	movl	$_Crc_CalculateChecksum, (%esp)
	call	_Debug_SetWatermark
	.loc 1 118 0
	movl	$0, -12(%ebp)
	.loc 1 119 0
	movl	16(%ebp), %eax
	movl	(%eax), %eax
	shrl	$3, %eax
	movl	%eax, -28(%ebp)
	.loc 1 120 0
	movl	8(%ebp), %eax
	movl	4(%eax), %eax
	leal	0(,%eax,8), %edx
	movl	16(%ebp), %eax
	movl	(%eax), %eax
	addl	%edx, %eax
	movl	%eax, -32(%ebp)
	.loc 1 121 0
	movl	-32(%ebp), %eax
	shrl	$3, %eax
	movl	%eax, -36(%ebp)
	.loc 1 124 0
	movl	-36(%ebp), %eax
	subl	$1, %eax
	movl	%eax, -40(%ebp)
	movl	$16, %eax
	leal	-1(%eax), %edx
	movl	-36(%ebp), %eax
	addl	%edx, %eax
	movl	$16, %ecx
	movl	$0, %edx
	divl	%ecx
	imull	$16, %eax, %eax
	call	___chkstk_ms
	subl	%eax, %esp
	leal	12(%esp), %eax
	addl	$0, %eax
	movl	%eax, -44(%ebp)
	.loc 1 129 0
	cmpl	$0, 8(%ebp)
	je	L14
	.loc 1 129 0 is_stmt 0 discriminator 1
	cmpl	$0, 12(%ebp)
	je	L14
	.loc 1 129 0 discriminator 2
	cmpl	$0, 16(%ebp)
	je	L14
	.loc 1 130 0 is_stmt 1 discriminator 3
	movl	8(%ebp), %eax
	movl	(%eax), %eax
	.loc 1 129 0 discriminator 3
	testl	%eax, %eax
	je	L14
	.loc 1 130 0
	movl	12(%ebp), %eax
	movl	(%eax), %eax
	testl	%eax, %eax
	je	L14
	.loc 1 132 0
	movl	12(%ebp), %eax
	movl	4(%eax), %eax
	cmpl	-28(%ebp), %eax
	jne	L15
	.loc 1 134 0
	movl	8(%ebp), %eax
	movl	4(%eax), %ecx
	movl	8(%ebp), %eax
	movl	(%eax), %edx
	movl	-44(%ebp), %eax
	movl	%ecx, 8(%esp)
	movl	%edx, 4(%esp)
	movl	%eax, (%esp)
	call	_memcpy
	.loc 1 135 0
	movl	8(%ebp), %eax
	movl	4(%eax), %edx
	movl	-44(%ebp), %eax
	addl	%eax, %edx
	movl	-28(%ebp), %eax
	movl	%eax, 8(%esp)
	movl	$0, 4(%esp)
	movl	%edx, (%esp)
	call	_memset
	.loc 1 136 0
	movl	-44(%ebp), %eax
	movl	-32(%ebp), %edx
	movl	%edx, 4(%esp)
	movl	%eax, (%esp)
	call	_FindMaxDegree
	movl	%eax, %edx
	movl	-32(%ebp), %eax
	subl	%edx, %eax
	subl	$1, %eax
	movl	%eax, -16(%ebp)
	.loc 1 137 0
	movl	-16(%ebp), %edx
	movl	16(%ebp), %eax
	movl	(%eax), %eax
	subl	%eax, %edx
	movl	%edx, %eax
	movl	%eax, -20(%ebp)
	.loc 1 139 0
	movl	-16(%ebp), %eax
	cmpl	-32(%ebp), %eax
	jnb	L16
	.loc 1 141 0
	jmp	L17
L20:
	.loc 1 143 0
	movl	-16(%ebp), %eax
	movl	-32(%ebp), %edx
	subl	%eax, %edx
	movl	%edx, %eax
	subl	$1, %eax
	shrl	$3, %eax
	movl	%eax, -48(%ebp)
	.loc 1 144 0
	movl	-32(%ebp), %eax
	movl	%eax, %edx
	movl	-16(%ebp), %eax
	subl	%eax, %edx
	movl	%edx, %eax
	subl	$1, %eax
	andl	$7, %eax
	movb	%al, -49(%ebp)
	.loc 1 145 0
	movzbl	-49(%ebp), %eax
	movl	$128, %edx
	movl	%eax, %ecx
	sarl	%cl, %edx
	movl	%edx, %eax
	notl	%eax
	movb	%al, -50(%ebp)
	.loc 1 146 0
	movl	-44(%ebp), %edx
	movl	-48(%ebp), %eax
	addl	%edx, %eax
	movzbl	(%eax), %eax
	andb	-50(%ebp), %al
	movl	-44(%ebp), %ecx
	movl	-48(%ebp), %edx
	addl	%ecx, %edx
	movb	%al, (%edx)
	.loc 1 147 0
	movb	$0, -21(%ebp)
	jmp	L18
L19:
	.loc 1 149 0 discriminator 3
	movl	-20(%ebp), %eax
	movl	-32(%ebp), %edx
	movl	%edx, %ecx
	subl	%eax, %ecx
	movl	16(%ebp), %eax
	movl	4(%eax), %edx
	movzbl	-21(%ebp), %eax
	addl	%edx, %eax
	movzbl	(%eax), %eax
	movzbl	%al, %eax
	subl	%eax, %ecx
	movl	%ecx, %eax
	subl	$1, %eax
	shrl	$3, %eax
	movl	%eax, -48(%ebp)
	.loc 1 150 0 discriminator 3
	movl	-32(%ebp), %eax
	movl	%eax, %edx
	movl	-20(%ebp), %eax
	movl	%edx, %ecx
	subl	%eax, %ecx
	movl	16(%ebp), %eax
	movl	4(%eax), %edx
	movzbl	-21(%ebp), %eax
	addl	%edx, %eax
	movzbl	(%eax), %eax
	subl	%eax, %ecx
	movl	%ecx, %eax
	subl	$1, %eax
	andl	$7, %eax
	movb	%al, -49(%ebp)
	.loc 1 151 0 discriminator 3
	movzbl	-49(%ebp), %eax
	movl	$128, %edx
	movl	%eax, %ecx
	sarl	%cl, %edx
	movl	%edx, %eax
	movb	%al, -50(%ebp)
	.loc 1 152 0 discriminator 3
	movl	-44(%ebp), %edx
	movl	-48(%ebp), %eax
	addl	%edx, %eax
	movzbl	(%eax), %eax
	xorb	-50(%ebp), %al
	movl	-44(%ebp), %ecx
	movl	-48(%ebp), %edx
	addl	%ecx, %edx
	movb	%al, (%edx)
	.loc 1 147 0 discriminator 3
	movzbl	-21(%ebp), %eax
	addl	$1, %eax
	movb	%al, -21(%ebp)
L18:
	.loc 1 147 0 is_stmt 0 discriminator 1
	movl	16(%ebp), %eax
	movzbl	8(%eax), %eax
	cmpb	-21(%ebp), %al
	ja	L19
	.loc 1 154 0 is_stmt 1
	movl	-44(%ebp), %eax
	movl	-32(%ebp), %edx
	movl	%edx, 4(%esp)
	movl	%eax, (%esp)
	call	_FindMaxDegree
	movl	%eax, %edx
	movl	-32(%ebp), %eax
	subl	%edx, %eax
	subl	$1, %eax
	movl	%eax, -16(%ebp)
	.loc 1 155 0
	movl	-16(%ebp), %edx
	movl	16(%ebp), %eax
	movl	(%eax), %eax
	subl	%eax, %edx
	movl	%edx, %eax
	movl	%eax, -20(%ebp)
L17:
	.loc 1 141 0
	cmpl	$0, -20(%ebp)
	jns	L20
L16:
	.loc 1 159 0
	movl	-36(%ebp), %eax
	subl	-28(%ebp), %eax
	movl	%eax, %edx
	movl	-44(%ebp), %eax
	leal	(%edx,%eax), %ecx
	movl	12(%ebp), %eax
	movl	(%eax), %eax
	movl	-28(%ebp), %edx
	movl	%edx, 8(%esp)
	movl	%ecx, 4(%esp)
	movl	%eax, (%esp)
	call	_memcpy
	.loc 1 132 0
	jmp	L22
L15:
	.loc 1 163 0
	movl	$7, -12(%ebp)
	.loc 1 132 0
	jmp	L22
L14:
	.loc 1 168 0
	movl	$1, -12(%ebp)
L22:
	.loc 1 171 0
	movl	-12(%ebp), %eax
	movl	%eax, (%esp)
	call	_Error_HandleErr
	movl	%ebx, %esp
	.loc 1 172 0
	movl	-4(%ebp), %ebx
	leave
	.cfi_restore 5
	.cfi_restore 3
	.cfi_def_cfa 4, 4
	ret
	.cfi_endproc
LFE19:
	.def	_FindMaxDegree;	.scl	3;	.type	32;	.endef
_FindMaxDegree:
LFB20:
	.loc 1 195 0
	.cfi_startproc
	pushl	%ebp
	.cfi_def_cfa_offset 8
	.cfi_offset 5, -8
	movl	%esp, %ebp
	.cfi_def_cfa_register 5
	subl	$40, %esp
	.loc 1 196 0
	movl	$1, 4(%esp)
	movl	$_FindMaxDegree, (%esp)
	call	_Debug_SetWatermark
	.loc 1 199 0
	movl	$-1, -16(%ebp)
	.loc 1 202 0
	movl	$0, -12(%ebp)
	jmp	L25
L28:
	.loc 1 204 0
	movl	-12(%ebp), %eax
	shrl	$3, %eax
	movl	%eax, -20(%ebp)
	.loc 1 205 0
	movl	-12(%ebp), %eax
	andl	$7, %eax
	movb	%al, -21(%ebp)
	.loc 1 207 0
	movl	8(%ebp), %edx
	movl	-20(%ebp), %eax
	addl	%edx, %eax
	movzbl	(%eax), %eax
	movzbl	%al, %edx
	movzbl	-21(%ebp), %eax
	movl	$7, %ecx
	subl	%eax, %ecx
	movl	%ecx, %eax
	movl	%eax, %ecx
	sarl	%cl, %edx
	movl	%edx, %eax
	andl	$1, %eax
	testl	%eax, %eax
	je	L26
	.loc 1 209 0
	movl	-12(%ebp), %eax
	movl	%eax, -16(%ebp)
	.loc 1 210 0
	jmp	L27
L26:
	.loc 1 202 0 discriminator 2
	addl	$1, -12(%ebp)
L25:
	.loc 1 202 0 is_stmt 0 discriminator 1
	movl	-12(%ebp), %eax
	cmpl	12(%ebp), %eax
	jb	L28
L27:
	.loc 1 214 0 is_stmt 1
	movl	-16(%ebp), %eax
	.loc 1 215 0
	leave
	.cfi_restore 5
	.cfi_def_cfa 4, 4
	ret
	.cfi_endproc
LFE20:
Letext0:
	.file 2 "c:/mingw/include/stdio.h"
	.file 3 "c:/mingw/include/stdint.h"
	.file 4 "c:/mingw/include/stdlib.h"
	.file 5 "c:/mingw/include/time.h"
	.file 6 "src/error.h"
	.file 7 "src/memory.h"
	.file 8 "src/crc.h"
	.file 9 "src/convolutional.h"
	.file 10 "src/debug.h"