	.file	"debug.c"
	.text
Ltext0:
	.globl	_Debug_ListParameters
	.def	_Debug_ListParameters;	.scl	2;	.type	32;	.endef
_Debug_ListParameters:
LFB18:
	.file 1 "src/debug.c"
	.loc 1 43 0
	.cfi_startproc
	pushl	%ebp
	.cfi_def_cfa_offset 8
	.cfi_offset 5, -8
	movl	%esp, %ebp
	.cfi_def_cfa_register 5
	subl	$40, %esp
	.loc 1 44 0
	movl	$0, -12(%ebp)
	.loc 1 46 0
	cmpl	$0, 8(%ebp)
	je	L2
	.loc 1 46 0 is_stmt 0 discriminator 1
	cmpl	$0, 12(%ebp)
	je	L2
	.loc 1 46 0 discriminator 2
	cmpl	$0, 16(%ebp)
	je	L2
	.loc 1 46 0 discriminator 3
	cmpl	$0, 20(%ebp)
	je	L2
	.loc 1 46 0 discriminator 4
	cmpl	$0, 24(%ebp)
	je	L2
	.loc 1 48 0 is_stmt 1
	movl	8(%ebp), %eax
	movl	24(%ebp), %edx
	movl	(%edx), %ecx
	movl	%ecx, 16(%eax)
	movl	4(%edx), %ecx
	movl	%ecx, 20(%eax)
	movl	8(%edx), %ecx
	movl	%ecx, 24(%eax)
	movl	12(%edx), %edx
	movl	%edx, 28(%eax)
	.loc 1 49 0
	movl	8(%ebp), %eax
	movl	12(%ebp), %edx
	movl	(%edx), %ecx
	movl	%ecx, (%eax)
	movl	4(%edx), %ecx
	movl	%ecx, 4(%eax)
	movl	8(%edx), %ecx
	movl	%ecx, 8(%eax)
	movl	12(%edx), %edx
	movl	%edx, 12(%eax)
	.loc 1 50 0
	movl	8(%ebp), %eax
	movl	16(%ebp), %edx
	movl	(%edx), %ecx
	movl	%ecx, 32(%eax)
	movl	4(%edx), %ecx
	movl	%ecx, 36(%eax)
	movl	8(%edx), %edx
	movl	%edx, 40(%eax)
	.loc 1 51 0
	movl	8(%ebp), %eax
	movl	20(%ebp), %edx
	movl	(%edx), %ecx
	movl	%ecx, 44(%eax)
	movl	4(%edx), %ecx
	movl	%ecx, 48(%eax)
	movl	8(%edx), %ecx
	movl	%ecx, 52(%eax)
	movl	12(%edx), %edx
	movl	%edx, 56(%eax)
	jmp	L3
L2:
	.loc 1 55 0
	movl	$1, -12(%ebp)
L3:
	.loc 1 58 0
	movl	-12(%ebp), %eax
	movl	%eax, (%esp)
	call	_Error_HandleErr
	.loc 1 59 0
	leave
	.cfi_restore 5
	.cfi_def_cfa 4, 4
	ret
	.cfi_endproc
LFE18:
	.globl	_Debug_GenerateRandomBytes
	.def	_Debug_GenerateRandomBytes;	.scl	2;	.type	32;	.endef
_Debug_GenerateRandomBytes:
LFB19:
	.loc 1 71 0
	.cfi_startproc
	pushl	%ebp
	.cfi_def_cfa_offset 8
	.cfi_offset 5, -8
	movl	%esp, %ebp
	.cfi_def_cfa_register 5
	pushl	%ebx
	subl	$36, %esp
	.cfi_offset 3, -12
	.loc 1 73 0
	movl	$0, -16(%ebp)
	.loc 1 75 0
	cmpl	$0, 8(%ebp)
	je	L6
	.loc 1 75 0 is_stmt 0 discriminator 1
	movl	8(%ebp), %eax
	movl	(%eax), %eax
	testl	%eax, %eax
	je	L6
	.loc 1 77 0 is_stmt 1
	cmpl	$0, 12(%ebp)
	jne	L7
	.loc 1 79 0
	movl	$0, (%esp)
	call	_time
	movl	%eax, (%esp)
	call	_srand
	jmp	L8
L7:
	.loc 1 83 0
	movl	12(%ebp), %eax
	movl	(%eax), %eax
	movl	%eax, (%esp)
	call	_srand
L8:
	.loc 1 86 0
	movl	$0, -12(%ebp)
	jmp	L9
L10:
	.loc 1 88 0 discriminator 3
	movl	8(%ebp), %eax
	movl	(%eax), %edx
	movl	-12(%ebp), %eax
	leal	(%edx,%eax), %ebx
	call	_rand
	movb	%al, (%ebx)
	.loc 1 86 0 discriminator 3
	addl	$1, -12(%ebp)
L9:
	.loc 1 86 0 is_stmt 0 discriminator 1
	movl	8(%ebp), %eax
	movl	4(%eax), %eax
	cmpl	-12(%ebp), %eax
	ja	L10
	.loc 1 75 0 is_stmt 1
	jmp	L11
L6:
	.loc 1 93 0
	movl	$1, -16(%ebp)
L11:
	.loc 1 96 0
	movl	-16(%ebp), %eax
	movl	%eax, (%esp)
	call	_Error_HandleErr
	.loc 1 97 0
	addl	$36, %esp
	popl	%ebx
	.cfi_restore 3
	popl	%ebp
	.cfi_restore 5
	.cfi_def_cfa 4, 4
	ret
	.cfi_endproc
LFE19:
	.section .rdata,"dr"
LC0:
	.ascii " * TX ORIGIN BYTES (%d)\12\11\0"
LC1:
	.ascii " * RX ORIGIN BYTES (%d)\12\11\0"
LC2:
	.ascii " * TX CRC BYTES (%d)\12\11\0"
LC3:
	.ascii " * RX CRC BYTES (%d)\12\11\0"
LC4:
	.ascii " * TX SCRAMBLED BYTES (%d)\12\11\0"
LC5:
	.ascii " * RX SCRAMBLED BYTES (%d)\12\11\0"
	.align 4
LC6:
	.ascii " * TX CONVOLUTIONAL CODED BYTES (%d)\12\11\0"
	.align 4
LC7:
	.ascii " * RX CONVOLUTIONAL CODED BYTES (%d)\12\11\0"
LC8:
	.ascii "%2X \0"
LC9:
	.ascii "\12\11\0"
	.text
	.globl	_Debug_PrintByteStream
	.def	_Debug_PrintByteStream;	.scl	2;	.type	32;	.endef
_Debug_PrintByteStream:
LFB20:
	.loc 1 110 0
	.cfi_startproc
	pushl	%ebp
	.cfi_def_cfa_offset 8
	.cfi_offset 5, -8
	movl	%esp, %ebp
	.cfi_def_cfa_register 5
	subl	$40, %esp
	.loc 1 111 0
	movl	$0, -12(%ebp)
	.loc 1 114 0
	cmpl	$0, 8(%ebp)
	je	L14
	.loc 1 114 0 is_stmt 0 discriminator 1
	movl	8(%ebp), %eax
	movl	(%eax), %eax
	testl	%eax, %eax
	je	L14
	.loc 1 114 0 discriminator 2
	cmpl	$0, 16(%ebp)
	je	L14
	.loc 1 116 0 is_stmt 1
	movl	16(%ebp), %eax
	movl	48(%eax), %eax
	cmpl	$1, %eax
	jne	L15
	.loc 1 116 0 is_stmt 0 discriminator 1
	movl	16(%ebp), %eax
	movl	12(%eax), %eax
	cmpl	$1, %eax
	jne	L15
	.loc 1 116 0 discriminator 2
	cmpl	$7, 12(%ebp)
	je	L34
L15:
	.loc 1 118 0 is_stmt 1
	cmpl	$7, 12(%ebp)
	ja	L17
	movl	12(%ebp), %eax
	sall	$2, %eax
	addl	$L19, %eax
	movl	(%eax), %eax
	jmp	*%eax
	.section .rdata,"dr"
	.align 4
L19:
	.long	L18
	.long	L20
	.long	L21
	.long	L22
	.long	L23
	.long	L24
	.long	L25
	.long	L26
	.text
L18:
	.loc 1 121 0
	movl	8(%ebp), %eax
	movl	4(%eax), %eax
	movl	%eax, 4(%esp)
	movl	$LC0, (%esp)
	call	_printf
	.loc 1 122 0
	jmp	L27
L20:
	.loc 1 125 0
	movl	8(%ebp), %eax
	movl	4(%eax), %eax
	movl	%eax, 4(%esp)
	movl	$LC1, (%esp)
	call	_printf
	.loc 1 126 0
	jmp	L27
L21:
	.loc 1 129 0
	movl	8(%ebp), %eax
	movl	4(%eax), %eax
	movl	%eax, 4(%esp)
	movl	$LC2, (%esp)
	call	_printf
	.loc 1 130 0
	jmp	L27
L22:
	.loc 1 133 0
	movl	8(%ebp), %eax
	movl	4(%eax), %eax
	movl	%eax, 4(%esp)
	movl	$LC3, (%esp)
	call	_printf
	.loc 1 134 0
	jmp	L27
L23:
	.loc 1 137 0
	movl	8(%ebp), %eax
	movl	4(%eax), %eax
	movl	%eax, 4(%esp)
	movl	$LC4, (%esp)
	call	_printf
	.loc 1 138 0
	jmp	L27
L24:
	.loc 1 141 0
	movl	8(%ebp), %eax
	movl	4(%eax), %eax
	movl	%eax, 4(%esp)
	movl	$LC5, (%esp)
	call	_printf
	.loc 1 142 0
	jmp	L27
L25:
	.loc 1 145 0
	movl	8(%ebp), %eax
	movl	4(%eax), %eax
	movl	%eax, 4(%esp)
	movl	$LC6, (%esp)
	call	_printf
	.loc 1 146 0
	jmp	L27
L26:
	.loc 1 149 0
	movl	8(%ebp), %eax
	movl	4(%eax), %eax
	movl	%eax, 4(%esp)
	movl	$LC7, (%esp)
	call	_printf
	.loc 1 150 0
	jmp	L27
L17:
	.loc 1 153 0
	movl	$2, -12(%ebp)
	.loc 1 154 0
	nop
L27:
	.loc 1 157 0
	cmpl	$0, -12(%ebp)
	jne	L28
	.loc 1 159 0
	movl	$0, -16(%ebp)
	jmp	L29
L31:
	.loc 1 161 0
	movl	8(%ebp), %eax
	movl	(%eax), %edx
	movl	-16(%ebp), %eax
	addl	%edx, %eax
	movzbl	(%eax), %eax
	movzbl	%al, %eax
	movl	%eax, 4(%esp)
	movl	$LC8, (%esp)
	call	_printf
	.loc 1 162 0
	movl	-16(%ebp), %ecx
	movl	$-736280107, %edx
	movl	%ecx, %eax
	mull	%edx
	movl	%ecx, %eax
	subl	%edx, %eax
	shrl	%eax
	addl	%edx, %eax
	shrl	$5, %eax
	imull	$35, %eax, %eax
	subl	%eax, %ecx
	movl	%ecx, %eax
	cmpl	$34, %eax
	jne	L30
	.loc 1 162 0 is_stmt 0 discriminator 1
	movl	8(%ebp), %eax
	movl	4(%eax), %eax
	subl	$1, %eax
	cmpl	-16(%ebp), %eax
	jbe	L30
	.loc 1 164 0 is_stmt 1
	movl	$LC9, (%esp)
	call	_printf
L30:
	.loc 1 159 0 discriminator 2
	addl	$1, -16(%ebp)
L29:
	.loc 1 159 0 is_stmt 0 discriminator 1
	movl	8(%ebp), %eax
	movl	4(%eax), %eax
	cmpl	-16(%ebp), %eax
	ja	L31
	.loc 1 167 0 is_stmt 1
	movl	$10, (%esp)
	call	_putchar
L28:
	.loc 1 170 0
	movl	$10, (%esp)
	call	_putchar
	.loc 1 116 0
	jmp	L34
L14:
	.loc 1 175 0
	movl	$1, -12(%ebp)
	jmp	L32
L34:
	.loc 1 116 0
	nop
L32:
	.loc 1 178 0
	movl	-12(%ebp), %eax
	movl	%eax, (%esp)
	call	_Error_HandleErr
	.loc 1 179 0
	leave
	.cfi_restore 5
	.cfi_def_cfa 4, 4
	ret
	.cfi_endproc
LFE20:
	.section .rdata,"dr"
LC10:
	.ascii " * RX LLRS (%d)\12\11\0"
LC12:
	.ascii "%1.3f \0"
LC13:
	.ascii "\12\0"
	.text
	.globl	_Debug_PrintFloatStream
	.def	_Debug_PrintFloatStream;	.scl	2;	.type	32;	.endef
_Debug_PrintFloatStream:
LFB21:
	.loc 1 192 0
	.cfi_startproc
	pushl	%ebp
	.cfi_def_cfa_offset 8
	.cfi_offset 5, -8
	movl	%esp, %ebp
	.cfi_def_cfa_register 5
	subl	$40, %esp
	.loc 1 193 0
	movl	$0, -12(%ebp)
	.loc 1 196 0
	cmpl	$0, 8(%ebp)
	je	L36
	.loc 1 196 0 is_stmt 0 discriminator 1
	movl	8(%ebp), %eax
	movl	(%eax), %eax
	testl	%eax, %eax
	je	L36
	.loc 1 196 0 discriminator 2
	cmpl	$0, 16(%ebp)
	je	L36
	.loc 1 199 0 is_stmt 1
	movl	16(%ebp), %eax
	movl	48(%eax), %eax
	cmpl	$1, %eax
	jne	L55
	.loc 1 199 0 is_stmt 0 discriminator 1
	movl	16(%ebp), %eax
	movl	12(%eax), %eax
	cmpl	$1, %eax
	jne	L55
	.loc 1 201 0 is_stmt 1
	movl	12(%ebp), %eax
	cmpl	$10, %eax
	jne	L53
	.loc 1 204 0
	movl	8(%ebp), %eax
	movl	4(%eax), %eax
	movl	%eax, 4(%esp)
	movl	$LC10, (%esp)
	call	_printf
	.loc 1 205 0
	jmp	L40
L53:
	.loc 1 208 0
	movl	$2, -12(%ebp)
	.loc 1 209 0
	nop
L40:
	.loc 1 212 0
	cmpl	$0, -12(%ebp)
	jne	L41
	.loc 1 214 0
	movl	$0, -16(%ebp)
	jmp	L42
L48:
	.loc 1 216 0
	movl	8(%ebp), %eax
	movl	(%eax), %eax
	movl	-16(%ebp), %edx
	sall	$2, %edx
	addl	%edx, %eax
	flds	(%eax)
	fldz
	fxch	%st(1)
	fucompp
	fnstsw	%ax
	sahf
	jbe	L54
	.loc 1 218 0
	movl	$43, (%esp)
	call	_putchar
	jmp	L45
L54:
	.loc 1 220 0
	movl	8(%ebp), %eax
	movl	(%eax), %eax
	movl	-16(%ebp), %edx
	sall	$2, %edx
	addl	%edx, %eax
	flds	(%eax)
	fldz
	fucomp	%st(1)
	fnstsw	%ax
	sahf
	jp	L56
	fldz
	fucompp
	fnstsw	%ax
	sahf
	jne	L45
	.loc 1 222 0
	movl	$32, (%esp)
	call	_putchar
	jmp	L45
L56:
	fstp	%st(0)
L45:
	.loc 1 225 0
	movl	8(%ebp), %eax
	movl	(%eax), %eax
	movl	-16(%ebp), %edx
	sall	$2, %edx
	addl	%edx, %eax
	flds	(%eax)
	fstpl	4(%esp)
	movl	$LC12, (%esp)
	call	_printf
	.loc 1 227 0
	movl	-16(%ebp), %ecx
	movl	$-2004318071, %edx
	movl	%ecx, %eax
	mull	%edx
	movl	%edx, %eax
	shrl	$3, %eax
	movl	%eax, %edx
	sall	$4, %edx
	subl	%eax, %edx
	movl	%ecx, %eax
	subl	%edx, %eax
	cmpl	$14, %eax
	jne	L47
	.loc 1 227 0 is_stmt 0 discriminator 1
	movl	8(%ebp), %eax
	movl	4(%eax), %eax
	subl	$1, %eax
	cmpl	-16(%ebp), %eax
	jbe	L47
	.loc 1 229 0 is_stmt 1
	movl	$LC9, (%esp)
	call	_printf
L47:
	.loc 1 214 0 discriminator 2
	addl	$1, -16(%ebp)
L42:
	.loc 1 214 0 is_stmt 0 discriminator 1
	movl	8(%ebp), %eax
	movl	4(%eax), %eax
	cmpl	-16(%ebp), %eax
	ja	L48
	.loc 1 233 0 is_stmt 1
	movl	$LC13, (%esp)
	call	_puts
L41:
	.loc 1 236 0
	movl	$10, (%esp)
	call	_putchar
	.loc 1 199 0
	jmp	L55
L36:
	.loc 1 241 0
	movl	$1, -12(%ebp)
	jmp	L49
L55:
	.loc 1 199 0
	nop
L49:
	.loc 1 244 0
	movl	-12(%ebp), %eax
	movl	%eax, (%esp)
	call	_Error_HandleErr
	.loc 1 245 0
	leave
	.cfi_restore 5
	.cfi_def_cfa 4, 4
	ret
	.cfi_endproc
LFE21:
	.section .rdata,"dr"
LC15:
	.ascii " * TX MAPPED SYMBOLS (%d)\12\11\0"
LC16:
	.ascii " * RX MAPPED SYMBOLS (%d)\12\11\0"
LC17:
	.ascii "%1.2f\0"
LC18:
	.ascii "%1.2fi | \0"
	.text
	.globl	_Debug_PrintComplexStream
	.def	_Debug_PrintComplexStream;	.scl	2;	.type	32;	.endef
_Debug_PrintComplexStream:
LFB22:
	.loc 1 258 0
	.cfi_startproc
	pushl	%ebp
	.cfi_def_cfa_offset 8
	.cfi_offset 5, -8
	movl	%esp, %ebp
	.cfi_def_cfa_register 5
	subl	$40, %esp
	.loc 1 259 0
	movl	$0, -12(%ebp)
	.loc 1 262 0
	cmpl	$0, 8(%ebp)
	je	L58
	.loc 1 262 0 is_stmt 0 discriminator 1
	movl	8(%ebp), %eax
	movl	(%eax), %eax
	testl	%eax, %eax
	je	L58
	.loc 1 262 0 discriminator 2
	cmpl	$0, 16(%ebp)
	je	L58
	.loc 1 264 0 is_stmt 1
	movl	16(%ebp), %eax
	movl	48(%eax), %eax
	cmpl	$1, %eax
	jne	L72
	.loc 1 266 0
	movl	12(%ebp), %eax
	cmpl	$8, %eax
	je	L61
	cmpl	$9, %eax
	je	L62
	jmp	L76
L61:
	.loc 1 269 0
	movl	8(%ebp), %eax
	movl	4(%eax), %eax
	movl	%eax, 4(%esp)
	movl	$LC15, (%esp)
	call	_printf
	.loc 1 270 0
	jmp	L63
L62:
	.loc 1 273 0
	movl	8(%ebp), %eax
	movl	4(%eax), %eax
	movl	%eax, 4(%esp)
	movl	$LC16, (%esp)
	call	_printf
	.loc 1 274 0
	jmp	L63
L76:
	.loc 1 277 0
	movl	$2, -12(%ebp)
	.loc 1 278 0
	nop
L63:
	.loc 1 281 0
	cmpl	$0, -12(%ebp)
	jne	L64
	.loc 1 283 0
	movl	$0, -16(%ebp)
	jmp	L65
L71:
	.loc 1 285 0
	movl	8(%ebp), %eax
	movl	(%eax), %eax
	movl	-16(%ebp), %edx
	sall	$3, %edx
	addl	%edx, %eax
	flds	(%eax)
	fldz
	fxch	%st(1)
	fucompp
	fnstsw	%ax
	sahf
	jb	L66
	.loc 1 287 0
	movl	$43, (%esp)
	call	_putchar
L66:
	.loc 1 289 0
	movl	8(%ebp), %eax
	movl	(%eax), %eax
	movl	-16(%ebp), %edx
	sall	$3, %edx
	addl	%edx, %eax
	flds	(%eax)
	fstpl	4(%esp)
	movl	$LC17, (%esp)
	call	_printf
	.loc 1 291 0
	movl	8(%ebp), %eax
	movl	(%eax), %eax
	movl	-16(%ebp), %edx
	sall	$3, %edx
	addl	%edx, %eax
	flds	4(%eax)
	fldz
	fxch	%st(1)
	fucompp
	fnstsw	%ax
	sahf
	jb	L68
	.loc 1 293 0
	movl	$43, (%esp)
	call	_putchar
L68:
	.loc 1 295 0
	movl	8(%ebp), %eax
	movl	(%eax), %eax
	movl	-16(%ebp), %edx
	sall	$3, %edx
	addl	%edx, %eax
	flds	4(%eax)
	fstpl	4(%esp)
	movl	$LC18, (%esp)
	call	_printf
	.loc 1 297 0
	movl	-16(%ebp), %eax
	andl	$7, %eax
	cmpl	$7, %eax
	jne	L70
	.loc 1 297 0 is_stmt 0 discriminator 1
	movl	8(%ebp), %eax
	movl	4(%eax), %eax
	subl	$1, %eax
	cmpl	-16(%ebp), %eax
	jbe	L70
	.loc 1 299 0 is_stmt 1
	movl	$LC9, (%esp)
	call	_printf
L70:
	.loc 1 283 0 discriminator 2
	addl	$1, -16(%ebp)
L65:
	.loc 1 283 0 is_stmt 0 discriminator 1
	movl	8(%ebp), %eax
	movl	4(%eax), %eax
	cmpl	-16(%ebp), %eax
	ja	L71
	.loc 1 302 0 is_stmt 1
	movl	$10, (%esp)
	call	_putchar
L64:
	.loc 1 305 0
	movl	$10, (%esp)
	call	_putchar
	.loc 1 264 0
	jmp	L72
L58:
	.loc 1 310 0
	movl	$1, -12(%ebp)
L72:
	.loc 1 313 0
	movl	-12(%ebp), %eax
	movl	%eax, (%esp)
	call	_Error_HandleErr
	.loc 1 314 0
	leave
	.cfi_restore 5
	.cfi_def_cfa 4, 4
	ret
	.cfi_endproc
LFE22:
	.section .rdata,"dr"
LC19:
	.ascii "\12 # PARAMETERS\0"
LC20:
	.ascii "    * Scrambling :\0"
LC21:
	.ascii "Multiplicative\0"
LC22:
	.ascii "N/A\0"
LC23:
	.ascii "Additive\0"
LC24:
	.ascii "%s\0"
LC25:
	.ascii " | Ncells = %u\12\0"
LC26:
	.ascii "    * Convolutional Coding :\0"
LC27:
	.ascii " K = %d\0"
LC28:
	.ascii " | Rc = %d/%d\0"
LC29:
	.ascii "Soft\0"
LC30:
	.ascii "Hard\0"
LC31:
	.ascii " | DM = %s\12\0"
LC32:
	.ascii "    * Modulation :\0"
LC33:
	.ascii "QAM\0"
LC34:
	.ascii "PSK\0"
LC35:
	.ascii " %u-%s\12\0"
LC36:
	.ascii "    * Channel :\0"
LC37:
	.ascii " BSC | Peb = %1.1e\12\0"
LC38:
	.ascii " AWGN | EbN0 = %1.1f\12\0"
LC39:
	.ascii " N/A\0"
	.text
	.globl	_Debug_PrintParameters
	.def	_Debug_PrintParameters;	.scl	2;	.type	32;	.endef
_Debug_PrintParameters:
LFB23:
	.loc 1 326 0
	.cfi_startproc
	pushl	%ebp
	.cfi_def_cfa_offset 8
	.cfi_offset 5, -8
	movl	%esp, %ebp
	.cfi_def_cfa_register 5
	subl	$40, %esp
	.loc 1 327 0
	movl	$0, -12(%ebp)
	.loc 1 329 0
	movl	12(%ebp), %eax
	movl	%eax, 4(%esp)
	movl	8(%ebp), %eax
	movl	%eax, (%esp)
	call	_IsOrgLenValid
	testb	%al, %al
	je	L78
	.loc 1 331 0
	movl	$LC19, (%esp)
	call	_puts
	.loc 1 332 0
	movl	$LC20, (%esp)
	call	_printf
	.loc 1 333 0
	movl	12(%ebp), %eax
	movl	16(%eax), %eax
	testl	%eax, %eax
	je	L79
	.loc 1 333 0 is_stmt 0 discriminator 1
	movl	12(%ebp), %eax
	movl	16(%eax), %eax
	cmpl	$1, %eax
	jne	L80
	.loc 1 333 0 discriminator 3
	movl	$LC21, %eax
	jmp	L82
L80:
	.loc 1 333 0 discriminator 4
	movl	$LC22, %eax
	jmp	L82
L79:
	.loc 1 333 0 discriminator 2
	movl	$LC23, %eax
L82:
	.loc 1 333 0 discriminator 8
	movl	%eax, 4(%esp)
	movl	$LC24, (%esp)
	call	_printf
	.loc 1 334 0 is_stmt 1 discriminator 8
	movl	12(%ebp), %eax
	movzbl	20(%eax), %eax
	movzbl	%al, %eax
	movl	%eax, 4(%esp)
	movl	$LC25, (%esp)
	call	_printf
	.loc 1 335 0 discriminator 8
	movl	$LC26, (%esp)
	call	_printf
	.loc 1 336 0 discriminator 8
	movl	12(%ebp), %eax
	movl	4(%eax), %eax
	movl	%eax, 4(%esp)
	movl	$LC27, (%esp)
	call	_printf
	.loc 1 337 0 discriminator 8
	movl	12(%ebp), %eax
	movl	(%eax), %eax
	leal	1(%eax), %edx
	movl	12(%ebp), %eax
	movl	(%eax), %eax
	movl	%edx, 8(%esp)
	movl	%eax, 4(%esp)
	movl	$LC28, (%esp)
	call	_printf
	.loc 1 338 0 discriminator 8
	movl	12(%ebp), %eax
	movl	12(%eax), %eax
	testl	%eax, %eax
	je	L83
	.loc 1 338 0 is_stmt 0 discriminator 1
	movl	12(%ebp), %eax
	movl	12(%eax), %eax
	cmpl	$1, %eax
	jne	L84
	.loc 1 338 0 discriminator 3
	movl	$LC29, %eax
	jmp	L86
L84:
	.loc 1 338 0 discriminator 4
	movl	$LC22, %eax
	jmp	L86
L83:
	.loc 1 338 0 discriminator 2
	movl	$LC30, %eax
L86:
	.loc 1 338 0 discriminator 8
	movl	%eax, 4(%esp)
	movl	$LC31, (%esp)
	call	_printf
	.loc 1 339 0 is_stmt 1 discriminator 8
	movl	$LC32, (%esp)
	call	_printf
	.loc 1 340 0 discriminator 8
	movl	12(%ebp), %eax
	movl	32(%eax), %eax
	testl	%eax, %eax
	je	L87
	.loc 1 340 0 is_stmt 0 discriminator 1
	movl	12(%ebp), %eax
	movl	32(%eax), %eax
	cmpl	$1, %eax
	jne	L88
	.loc 1 340 0 discriminator 3
	movl	$LC33, %eax
	jmp	L90
L88:
	.loc 1 340 0 discriminator 4
	movl	$LC22, %eax
	jmp	L90
L87:
	.loc 1 340 0 discriminator 2
	movl	$LC34, %eax
L90:
	.loc 1 340 0 discriminator 8
	movl	12(%ebp), %edx
	movzbl	36(%edx), %edx
	movzbl	%dl, %edx
	movl	%eax, 8(%esp)
	movl	%edx, 4(%esp)
	movl	$LC35, (%esp)
	call	_printf
	.loc 1 341 0 is_stmt 1 discriminator 8
	movl	$LC36, (%esp)
	call	_printf
	.loc 1 342 0 discriminator 8
	movl	12(%ebp), %eax
	movl	48(%eax), %eax
	testl	%eax, %eax
	jne	L91
	.loc 1 344 0
	movl	12(%ebp), %eax
	flds	56(%eax)
	fstpl	4(%esp)
	movl	$LC37, (%esp)
	call	_printf
	jmp	L92
L91:
	.loc 1 346 0
	movl	12(%ebp), %eax
	movl	48(%eax), %eax
	cmpl	$1, %eax
	jne	L93
	.loc 1 348 0
	movl	12(%ebp), %eax
	flds	56(%eax)
	fstpl	4(%esp)
	movl	$LC38, (%esp)
	call	_printf
	jmp	L92
L93:
	.loc 1 352 0
	movl	$LC39, (%esp)
	call	_puts
L92:
	.loc 1 354 0
	movl	$10, (%esp)
	call	_putchar
	jmp	L94
L78:
	.loc 1 358 0
	movl	$6, -12(%ebp)
L94:
	.loc 1 361 0
	movl	-12(%ebp), %eax
	movl	%eax, (%esp)
	call	_Error_HandleErr
	.loc 1 362 0
	leave
	.cfi_restore 5
	.cfi_def_cfa 4, 4
	ret
	.cfi_endproc
LFE23:
	.section .rdata,"dr"
	.align 4
LC40:
	.ascii " * Errors at convolutional encoding level: %u out of %u bits (MD = %u)\12\12\0"
	.align 4
LC41:
	.ascii " * Errors at source level: %u out of %u bits (MD = %u)\12\12\0"
	.text
	.globl	_Debug_CheckWrongBits
	.def	_Debug_CheckWrongBits;	.scl	2;	.type	32;	.endef
_Debug_CheckWrongBits:
LFB24:
	.loc 1 376 0
	.cfi_startproc
	pushl	%ebp
	.cfi_def_cfa_offset 8
	.cfi_offset 5, -8
	movl	%esp, %ebp
	.cfi_def_cfa_register 5
	pushl	%ebx
	subl	$52, %esp
	.cfi_offset 3, -12
	.loc 1 377 0
	movl	$0, -12(%ebp)
	.loc 1 378 0
	movl	8(%ebp), %eax
	movl	4(%eax), %eax
	sall	$3, %eax
	movl	%eax, -32(%ebp)
	.loc 1 379 0
	movl	$0, -16(%ebp)
	.loc 1 380 0
	movl	-32(%ebp), %eax
	movl	%eax, -20(%ebp)
	.loc 1 381 0
	movl	$0, -24(%ebp)
	.loc 1 386 0
	cmpl	$0, 8(%ebp)
	je	L97
	.loc 1 386 0 is_stmt 0 discriminator 1
	movl	8(%ebp), %eax
	movl	(%eax), %eax
	testl	%eax, %eax
	je	L97
	.loc 1 386 0 discriminator 2
	cmpl	$0, 12(%ebp)
	je	L97
	.loc 1 386 0 discriminator 3
	movl	12(%ebp), %eax
	movl	(%eax), %eax
	testl	%eax, %eax
	je	L97
	.loc 1 386 0 discriminator 4
	cmpl	$0, 20(%ebp)
	je	L97
	.loc 1 388 0 is_stmt 1
	movl	20(%ebp), %eax
	movl	48(%eax), %eax
	cmpl	$1, %eax
	jne	L98
	.loc 1 388 0 is_stmt 0 discriminator 1
	movl	20(%ebp), %eax
	movl	12(%eax), %eax
	cmpl	$1, %eax
	jne	L98
	.loc 1 388 0 discriminator 2
	cmpl	$7, 16(%ebp)
	je	L112
L98:
	.loc 1 390 0 is_stmt 1
	movl	8(%ebp), %eax
	movl	4(%eax), %edx
	movl	12(%ebp), %eax
	movl	4(%eax), %eax
	cmpl	%eax, %edx
	jne	L100
	.loc 1 392 0
	movl	$0, -28(%ebp)
	jmp	L101
L104:
	.loc 1 394 0
	movl	-28(%ebp), %eax
	shrl	$3, %eax
	movl	%eax, -36(%ebp)
	.loc 1 395 0
	movl	-28(%ebp), %eax
	andl	$7, %eax
	movb	%al, -37(%ebp)
	.loc 1 396 0
	addl	$1, -24(%ebp)
	.loc 1 397 0
	movl	8(%ebp), %eax
	movl	(%eax), %edx
	movl	-36(%ebp), %eax
	addl	%edx, %eax
	movzbl	(%eax), %eax
	movzbl	%al, %edx
	movzbl	-37(%ebp), %eax
	movl	$7, %ecx
	subl	%eax, %ecx
	movl	%ecx, %eax
	movl	%edx, %ebx
	movl	%eax, %ecx
	sarl	%cl, %ebx
	.loc 1 398 0
	movl	12(%ebp), %eax
	movl	(%eax), %edx
	movl	-36(%ebp), %eax
	addl	%edx, %eax
	movzbl	(%eax), %eax
	movzbl	%al, %edx
	movzbl	-37(%ebp), %eax
	movl	$7, %ecx
	subl	%eax, %ecx
	movl	%ecx, %eax
	movl	%eax, %ecx
	sarl	%cl, %edx
	movl	%edx, %eax
	.loc 1 397 0
	xorl	%ebx, %eax
	andl	$1, %eax
	testl	%eax, %eax
	je	L102
	.loc 1 400 0
	addl	$1, -16(%ebp)
	.loc 1 401 0
	cmpl	$1, -16(%ebp)
	jbe	L103
	.loc 1 401 0 is_stmt 0 discriminator 1
	movl	-24(%ebp), %eax
	cmpl	-20(%ebp), %eax
	jnb	L103
	.loc 1 403 0 is_stmt 1
	movl	-24(%ebp), %eax
	movl	%eax, -20(%ebp)
L103:
	.loc 1 405 0
	movl	$0, -24(%ebp)
L102:
	.loc 1 392 0 discriminator 2
	addl	$1, -28(%ebp)
L101:
	.loc 1 392 0 is_stmt 0 discriminator 1
	movl	-28(%ebp), %eax
	cmpl	-32(%ebp), %eax
	jb	L104
	.loc 1 408 0 is_stmt 1
	cmpl	$1, -16(%ebp)
	ja	L105
	.loc 1 410 0
	movl	$0, -20(%ebp)
L105:
	.loc 1 413 0
	movl	16(%ebp), %eax
	cmpl	$1, %eax
	jbe	L107
	subl	$6, %eax
	cmpl	$1, %eax
	ja	L106
	.loc 1 417 0
	movl	-20(%ebp), %eax
	movl	%eax, 12(%esp)
	movl	-32(%ebp), %eax
	movl	%eax, 8(%esp)
	movl	-16(%ebp), %eax
	movl	%eax, 4(%esp)
	movl	$LC40, (%esp)
	call	_printf
	.loc 1 418 0
	jmp	L99
L107:
	.loc 1 422 0
	movl	-20(%ebp), %eax
	movl	%eax, 12(%esp)
	movl	-32(%ebp), %eax
	movl	%eax, 8(%esp)
	movl	-16(%ebp), %eax
	movl	%eax, 4(%esp)
	movl	$LC41, (%esp)
	call	_printf
	.loc 1 423 0
	jmp	L99
L106:
	.loc 1 426 0
	movl	$2, -12(%ebp)
	.loc 1 427 0
	nop
	jmp	L99
L100:
	.loc 1 432 0
	movl	$6, -12(%ebp)
	.loc 1 388 0
	jmp	L112
L99:
	.loc 1 388 0 is_stmt 0 discriminator 1
	jmp	L112
L97:
	.loc 1 438 0 is_stmt 1
	movl	$1, -12(%ebp)
	jmp	L110
L112:
	.loc 1 388 0
	nop
L110:
	.loc 1 441 0
	movl	-12(%ebp), %eax
	movl	%eax, (%esp)
	call	_Error_HandleErr
	.loc 1 442 0
	addl	$52, %esp
	popl	%ebx
	.cfi_restore 3
	popl	%ebp
	.cfi_restore 5
	.cfi_def_cfa 4, 4
	ret
	.cfi_endproc
LFE24:
	.section .rdata,"dr"
LC42:
	.ascii "w\0"
LC43:
	.ascii "txOrgBytes.csv\0"
LC44:
	.ascii "rxOrgBytes.csv\0"
LC45:
	.ascii "txScrBytes.csv\0"
LC46:
	.ascii "rxScrBytes.csv\0"
LC47:
	.ascii "%u,\0"
LC48:
	.ascii "%u\0"
	.text
	.globl	_Debug_WriteByteStreamToCsv
	.def	_Debug_WriteByteStreamToCsv;	.scl	2;	.type	32;	.endef
_Debug_WriteByteStreamToCsv:
LFB25:
	.loc 1 454 0
	.cfi_startproc
	pushl	%ebp
	.cfi_def_cfa_offset 8
	.cfi_offset 5, -8
	movl	%esp, %ebp
	.cfi_def_cfa_register 5
	subl	$40, %esp
	.loc 1 455 0
	movl	$0, -12(%ebp)
	.loc 1 456 0
	movl	$0, -16(%ebp)
	.loc 1 459 0
	cmpl	$0, 8(%ebp)
	je	L114
	.loc 1 459 0 is_stmt 0 discriminator 1
	movl	8(%ebp), %eax
	movl	(%eax), %eax
	testl	%eax, %eax
	je	L114
	.loc 1 461 0 is_stmt 1
	movl	12(%ebp), %eax
	cmpl	$1, %eax
	je	L116
	cmpl	$1, %eax
	jb	L117
	cmpl	$4, %eax
	je	L118
	cmpl	$5, %eax
	je	L119
	jmp	L127
L117:
	.loc 1 464 0
	movl	$LC42, 4(%esp)
	movl	$LC43, (%esp)
	call	_fopen
	movl	%eax, -16(%ebp)
	.loc 1 465 0
	jmp	L120
L116:
	.loc 1 468 0
	movl	$LC42, 4(%esp)
	movl	$LC44, (%esp)
	call	_fopen
	movl	%eax, -16(%ebp)
	.loc 1 469 0
	jmp	L120
L118:
	.loc 1 472 0
	movl	$LC42, 4(%esp)
	movl	$LC45, (%esp)
	call	_fopen
	movl	%eax, -16(%ebp)
	.loc 1 473 0
	jmp	L120
L119:
	.loc 1 476 0
	movl	$LC42, 4(%esp)
	movl	$LC46, (%esp)
	call	_fopen
	movl	%eax, -16(%ebp)
	.loc 1 477 0
	jmp	L120
L127:
	.loc 1 480 0
	movl	$2, -12(%ebp)
	.loc 1 481 0
	nop
L120:
	.loc 1 484 0
	cmpl	$0, -12(%ebp)
	jne	L128
	.loc 1 484 0 is_stmt 0 discriminator 1
	cmpl	$0, -16(%ebp)
	je	L128
	.loc 1 486 0 is_stmt 1
	movl	8(%ebp), %eax
	movl	4(%eax), %eax
	movl	%eax, 8(%esp)
	movl	$LC47, 4(%esp)
	movl	-16(%ebp), %eax
	movl	%eax, (%esp)
	call	_fprintf
	.loc 1 487 0
	movl	$0, -20(%ebp)
	jmp	L122
L124:
	.loc 1 489 0
	movl	8(%ebp), %eax
	movl	(%eax), %edx
	movl	-20(%ebp), %eax
	addl	%edx, %eax
	movzbl	(%eax), %eax
	movzbl	%al, %eax
	movl	%eax, 8(%esp)
	movl	$LC48, 4(%esp)
	movl	-16(%ebp), %eax
	movl	%eax, (%esp)
	call	_fprintf
	.loc 1 490 0
	movl	8(%ebp), %eax
	movl	4(%eax), %eax
	subl	$1, %eax
	cmpl	-20(%ebp), %eax
	jbe	L123
	.loc 1 492 0
	movl	-16(%ebp), %eax
	movl	%eax, 4(%esp)
	movl	$44, (%esp)
	call	_fputc
L123:
	.loc 1 487 0 discriminator 2
	addl	$1, -20(%ebp)
L122:
	.loc 1 487 0 is_stmt 0 discriminator 1
	movl	8(%ebp), %eax
	movl	4(%eax), %eax
	cmpl	-20(%ebp), %eax
	ja	L124
	.loc 1 495 0 is_stmt 1
	movl	-16(%ebp), %eax
	movl	%eax, (%esp)
	call	_fclose
	.loc 1 484 0
	jmp	L128
L114:
	.loc 1 500 0
	movl	$1, -12(%ebp)
	jmp	L125
L128:
	.loc 1 484 0
	nop
L125:
	.loc 1 503 0
	movl	-12(%ebp), %eax
	movl	%eax, (%esp)
	call	_Error_HandleErr
	.loc 1 504 0
	leave
	.cfi_restore 5
	.cfi_def_cfa 4, 4
	ret
	.cfi_endproc
LFE25:
	.section .rdata,"dr"
LC49:
	.ascii "txModSymbs.csv\0"
LC50:
	.ascii "rxModSymbs.csv\0"
LC51:
	.ascii "%1.4f,%1.4f\0"
	.text
	.globl	_Debug_WriteComplexStreamToCsv
	.def	_Debug_WriteComplexStreamToCsv;	.scl	2;	.type	32;	.endef
_Debug_WriteComplexStreamToCsv:
LFB26:
	.loc 1 516 0
	.cfi_startproc
	pushl	%ebp
	.cfi_def_cfa_offset 8
	.cfi_offset 5, -8
	movl	%esp, %ebp
	.cfi_def_cfa_register 5
	subl	$56, %esp
	.loc 1 517 0
	movl	$0, -12(%ebp)
	.loc 1 518 0
	movl	$0, -16(%ebp)
	.loc 1 521 0
	cmpl	$0, 8(%ebp)
	je	L130
	.loc 1 521 0 is_stmt 0 discriminator 1
	movl	8(%ebp), %eax
	movl	(%eax), %eax
	testl	%eax, %eax
	je	L130
	.loc 1 523 0 is_stmt 1
	movl	12(%ebp), %eax
	cmpl	$8, %eax
	je	L132
	cmpl	$9, %eax
	je	L133
	jmp	L141
L132:
	.loc 1 526 0
	movl	$LC42, 4(%esp)
	movl	$LC49, (%esp)
	call	_fopen
	movl	%eax, -16(%ebp)
	.loc 1 527 0
	jmp	L134
L133:
	.loc 1 530 0
	movl	$LC42, 4(%esp)
	movl	$LC50, (%esp)
	call	_fopen
	movl	%eax, -16(%ebp)
	.loc 1 531 0
	jmp	L134
L141:
	.loc 1 534 0
	movl	$2, -12(%ebp)
	.loc 1 535 0
	nop
L134:
	.loc 1 538 0
	cmpl	$0, -12(%ebp)
	jne	L142
	.loc 1 538 0 is_stmt 0 discriminator 1
	cmpl	$0, -16(%ebp)
	je	L142
	.loc 1 540 0 is_stmt 1
	movl	8(%ebp), %eax
	movl	4(%eax), %eax
	movl	%eax, 8(%esp)
	movl	$LC47, 4(%esp)
	movl	-16(%ebp), %eax
	movl	%eax, (%esp)
	call	_fprintf
	.loc 1 541 0
	movl	$0, -20(%ebp)
	jmp	L136
L138:
	.loc 1 543 0
	movl	8(%ebp), %eax
	movl	(%eax), %eax
	movl	-20(%ebp), %edx
	sall	$3, %edx
	addl	%edx, %eax
	flds	4(%eax)
	movl	8(%ebp), %eax
	movl	(%eax), %eax
	movl	-20(%ebp), %edx
	sall	$3, %edx
	addl	%edx, %eax
	flds	(%eax)
	fxch	%st(1)
	fstpl	16(%esp)
	fstpl	8(%esp)
	movl	$LC51, 4(%esp)
	movl	-16(%ebp), %eax
	movl	%eax, (%esp)
	call	_fprintf
	.loc 1 544 0
	movl	8(%ebp), %eax
	movl	4(%eax), %eax
	subl	$1, %eax
	cmpl	-20(%ebp), %eax
	jbe	L137
	.loc 1 546 0
	movl	-16(%ebp), %eax
	movl	%eax, 4(%esp)
	movl	$44, (%esp)
	call	_fputc
L137:
	.loc 1 541 0 discriminator 2
	addl	$1, -20(%ebp)
L136:
	.loc 1 541 0 is_stmt 0 discriminator 1
	movl	8(%ebp), %eax
	movl	4(%eax), %eax
	cmpl	-20(%ebp), %eax
	ja	L138
	.loc 1 549 0 is_stmt 1
	movl	-16(%ebp), %eax
	movl	%eax, (%esp)
	call	_fclose
	.loc 1 538 0
	jmp	L142
L130:
	.loc 1 554 0
	movl	$1, -12(%ebp)
	jmp	L139
L142:
	.loc 1 538 0
	nop
L139:
	.loc 1 557 0
	movl	-12(%ebp), %eax
	movl	%eax, (%esp)
	call	_Error_HandleErr
	.loc 1 558 0
	leave
	.cfi_restore 5
	.cfi_def_cfa 4, 4
	ret
	.cfi_endproc
LFE26:
	.def	_IsOrgLenValid;	.scl	3;	.type	32;	.endef
_IsOrgLenValid:
LFB27:
	.loc 1 574 0
	.cfi_startproc
	pushl	%ebp
	.cfi_def_cfa_offset 8
	.cfi_offset 5, -8
	movl	%esp, %ebp
	.cfi_def_cfa_register 5
	subl	$16, %esp
	.loc 1 575 0
	movb	$0, -1(%ebp)
	.loc 1 576 0
	movl	8(%ebp), %eax
	sall	$3, %eax
	movl	%eax, -8(%ebp)
	.loc 1 577 0
	movl	12(%ebp), %eax
	movl	(%eax), %ecx
	movl	-8(%ebp), %eax
	movl	$0, %edx
	divl	%ecx
	movl	%eax, %edx
	movl	12(%ebp), %eax
	movl	(%eax), %eax
	addl	$1, %eax
	imull	%edx, %eax
	movl	%eax, -12(%ebp)
	.loc 1 579 0
	cmpl	$0, 8(%ebp)
	je	L144
	.loc 1 579 0 is_stmt 0 discriminator 1
	movl	12(%ebp), %eax
	movl	(%eax), %ecx
	movl	-8(%ebp), %eax
	movl	$0, %edx
	divl	%ecx
	movl	%edx, %eax
	testl	%eax, %eax
	jne	L144
	.loc 1 580 0 is_stmt 1 discriminator 2
	movl	-12(%ebp), %eax
	andl	$7, %eax
	.loc 1 579 0 discriminator 2
	testl	%eax, %eax
	jne	L144
	.loc 1 581 0
	movl	12(%ebp), %eax
	movzbl	37(%eax), %eax
	movzbl	%al, %ecx
	movl	-12(%ebp), %eax
	movl	$0, %edx
	divl	%ecx
	movl	%edx, %eax
	.loc 1 580 0
	testl	%eax, %eax
	jne	L144
	.loc 1 583 0
	movb	$1, -1(%ebp)
L144:
	.loc 1 586 0
	movzbl	-1(%ebp), %eax
	.loc 1 587 0
	leave
	.cfi_restore 5
	.cfi_def_cfa 4, 4
	ret
	.cfi_endproc
LFE27:
Letext0:
	.file 2 "c:/mingw/include/stdio.h"
	.file 3 "c:/mingw/include/stdint.h"
	.file 4 "c:/mingw/include/stdlib.h"
	.file 5 "c:/mingw/include/time.h"
	.file 6 "src/system.h"
	.file 7 "src/error.h"
	.file 8 "src/memory.h"
	.file 9 "src/modulation.h"
	.file 10 "src/channel.h"
	.file 11 "src/convolutional.h"
	.file 12 "src/scrambling.h"
	.file 13 "src/debug.h"