	.file	"interleaving.c"
	.text
Ltext0:
	.globl	_Intrlv_ListParameters
	.def	_Intrlv_ListParameters;	.scl	2;	.type	32;	.endef
_Intrlv_ListParameters:
LFB18:
	.file 1 "src/interleaving.c"
	.loc 1 46 0
	.cfi_startproc
	pushl	%ebp
	.cfi_def_cfa_offset 8
	.cfi_offset 5, -8
	movl	%esp, %ebp
	.cfi_def_cfa_register 5
	subl	$40, %esp
	.loc 1 47 0
	movl	$0, 4(%esp)
	movl	$_Intrlv_ListParameters, (%esp)
	call	_Debug_SetWatermark
	.loc 1 49 0
	movl	$0, -12(%ebp)
	.loc 1 51 0
	cmpl	$0, 8(%ebp)
	je	L2
	.loc 1 53 0
	movl	8(%ebp), %eax
	movl	$1, (%eax)
	.loc 1 55 0
	movl	8(%ebp), %eax
	movl	(%eax), %eax
	testl	%eax, %eax
	jne	L3
	.loc 1 57 0
	movl	8(%ebp), %eax
	movb	$4, 4(%eax)
	.loc 1 58 0
	movl	8(%ebp), %eax
	movb	$51, 5(%eax)
	jmp	L6
L3:
	.loc 1 60 0
	movl	8(%ebp), %eax
	movl	(%eax), %eax
	cmpl	$1, %eax
	jne	L5
	.loc 1 62 0
	movl	8(%ebp), %eax
	movb	$12, 4(%eax)
	.loc 1 63 0
	movl	8(%ebp), %eax
	movb	$17, 5(%eax)
	jmp	L6
L5:
	.loc 1 67 0
	movl	$18, -12(%ebp)
	jmp	L6
L2:
	.loc 1 72 0
	movl	$1, -12(%ebp)
L6:
	.loc 1 75 0
	movl	-12(%ebp), %eax
	movl	%eax, (%esp)
	call	_Error_HandleErr
	.loc 1 76 0
	leave
	.cfi_restore 5
	.cfi_def_cfa 4, 4
	ret
	.cfi_endproc
LFE18:
	.globl	_Intrlv_Interleaver
	.def	_Intrlv_Interleaver;	.scl	2;	.type	32;	.endef
_Intrlv_Interleaver:
LFB19:
	.loc 1 89 0
	.cfi_startproc
	pushl	%ebp
	.cfi_def_cfa_offset 8
	.cfi_offset 5, -8
	movl	%esp, %ebp
	.cfi_def_cfa_register 5
	subl	$40, %esp
	.loc 1 90 0
	movl	$0, 4(%esp)
	movl	$_Intrlv_Interleaver, (%esp)
	call	_Debug_SetWatermark
	.loc 1 92 0
	movl	$0, -12(%ebp)
	.loc 1 94 0
	cmpl	$0, 16(%ebp)
	je	L9
	.loc 1 96 0
	movl	16(%ebp), %eax
	movl	(%eax), %eax
	testl	%eax, %eax
	je	L11
	cmpl	$1, %eax
	je	L12
	jmp	L14
L11:
	.loc 1 99 0
	movl	16(%ebp), %eax
	movl	%eax, 8(%esp)
	movl	12(%ebp), %eax
	movl	%eax, 4(%esp)
	movl	8(%ebp), %eax
	movl	%eax, (%esp)
	call	_BlockInterleaver
	movl	%eax, -12(%ebp)
	.loc 1 100 0
	jmp	L9
L12:
	.loc 1 103 0
	movl	16(%ebp), %eax
	movl	%eax, 8(%esp)
	movl	12(%ebp), %eax
	movl	%eax, 4(%esp)
	movl	8(%ebp), %eax
	movl	%eax, (%esp)
	call	_ConvolutionalInterleaver
	movl	%eax, -12(%ebp)
	.loc 1 104 0
	jmp	L9
L14:
	.loc 1 107 0
	movl	$13, -12(%ebp)
	.loc 1 108 0
	nop
L9:
	.loc 1 112 0
	movl	-12(%ebp), %eax
	movl	%eax, (%esp)
	call	_Error_HandleErr
	.loc 1 113 0
	leave
	.cfi_restore 5
	.cfi_def_cfa 4, 4
	ret
	.cfi_endproc
LFE19:
	.globl	_Intrlv_Deinterleaver
	.def	_Intrlv_Deinterleaver;	.scl	2;	.type	32;	.endef
_Intrlv_Deinterleaver:
LFB20:
	.loc 1 126 0
	.cfi_startproc
	pushl	%ebp
	.cfi_def_cfa_offset 8
	.cfi_offset 5, -8
	movl	%esp, %ebp
	.cfi_def_cfa_register 5
	subl	$40, %esp
	.loc 1 127 0
	movl	$0, 4(%esp)
	movl	$_Intrlv_Deinterleaver, (%esp)
	call	_Debug_SetWatermark
	.loc 1 129 0
	movl	$0, -12(%ebp)
	.loc 1 131 0
	cmpl	$0, 16(%ebp)
	je	L16
	.loc 1 133 0
	movl	16(%ebp), %eax
	movl	(%eax), %eax
	testl	%eax, %eax
	je	L18
	cmpl	$1, %eax
	je	L19
	jmp	L21
L18:
	.loc 1 136 0
	movl	16(%ebp), %eax
	movl	%eax, 8(%esp)
	movl	12(%ebp), %eax
	movl	%eax, 4(%esp)
	movl	8(%ebp), %eax
	movl	%eax, (%esp)
	call	_BlockDeinterleaver
	movl	%eax, -12(%ebp)
	.loc 1 137 0
	jmp	L16
L19:
	.loc 1 140 0
	movl	16(%ebp), %eax
	movl	%eax, 8(%esp)
	movl	12(%ebp), %eax
	movl	%eax, 4(%esp)
	movl	8(%ebp), %eax
	movl	%eax, (%esp)
	call	_ConvolutionalDeinterleaver
	movl	%eax, -12(%ebp)
	.loc 1 141 0
	jmp	L16
L21:
	.loc 1 144 0
	movl	$13, -12(%ebp)
	.loc 1 145 0
	nop
L16:
	.loc 1 149 0
	movl	-12(%ebp), %eax
	movl	%eax, (%esp)
	call	_Error_HandleErr
	.loc 1 150 0
	leave
	.cfi_restore 5
	.cfi_def_cfa 4, 4
	ret
	.cfi_endproc
LFE20:
	.def	_BlockInterleaver;	.scl	3;	.type	32;	.endef
_BlockInterleaver:
LFB21:
	.loc 1 173 0
	.cfi_startproc
	pushl	%ebp
	.cfi_def_cfa_offset 8
	.cfi_offset 5, -8
	movl	%esp, %ebp
	.cfi_def_cfa_register 5
	pushl	%ebx
	subl	$52, %esp
	.cfi_offset 3, -12
	.loc 1 174 0
	movl	$1, 4(%esp)
	movl	$_BlockInterleaver, (%esp)
	call	_Debug_SetWatermark
	.loc 1 176 0
	movl	$0, -12(%ebp)
	.loc 1 177 0
	movl	8(%ebp), %eax
	movl	4(%eax), %eax
	leal	-1(%eax), %edx
	movl	16(%ebp), %eax
	movzbl	4(%eax), %eax
	movzbl	%al, %ecx
	movl	16(%ebp), %eax
	movzbl	5(%eax), %eax
	movzbl	%al, %eax
	imull	%ecx, %eax
	movl	%eax, %ecx
	movl	%edx, %eax
	movl	$0, %edx
	divl	%ecx
	addl	$1, %eax
	movl	%eax, -36(%ebp)
	.loc 1 182 0
	movl	8(%ebp), %eax
	movl	8(%eax), %eax
	movl	%eax, 4(%esp)
	movl	8(%ebp), %eax
	movl	%eax, (%esp)
	call	_Memory_IsStreamValid
	testb	%al, %al
	je	L23
	.loc 1 183 0 discriminator 1
	movl	12(%ebp), %eax
	movl	8(%eax), %eax
	movl	%eax, 4(%esp)
	movl	12(%ebp), %eax
	movl	%eax, (%esp)
	call	_Memory_IsStreamValid
	.loc 1 182 0 discriminator 1
	testb	%al, %al
	je	L23
	.loc 1 185 0
	movl	8(%ebp), %eax
	movl	4(%eax), %edx
	movl	12(%ebp), %eax
	movl	4(%eax), %eax
	cmpl	%eax, %edx
	jne	L24
	.loc 1 187 0
	movl	$0, -28(%ebp)
	jmp	L25
L31:
	.loc 1 189 0
	movb	$0, -29(%ebp)
	.loc 1 190 0
	movl	$0, -24(%ebp)
	.loc 1 192 0
	movl	-36(%ebp), %eax
	subl	$1, %eax
	cmpl	-28(%ebp), %eax
	jne	L26
	.loc 1 194 0
	movl	8(%ebp), %eax
	movl	4(%eax), %edx
	movl	16(%ebp), %eax
	movzbl	4(%eax), %eax
	movzbl	%al, %eax
	imull	-28(%ebp), %eax
	movl	%eax, %ecx
	movl	16(%ebp), %eax
	movzbl	5(%eax), %eax
	movzbl	%al, %eax
	imull	%ecx, %eax
	subl	%eax, %edx
	movl	%edx, %eax
	movl	%eax, -16(%ebp)
	jmp	L27
L26:
	.loc 1 198 0
	movl	16(%ebp), %eax
	movzbl	4(%eax), %eax
	movzbl	%al, %edx
	movl	16(%ebp), %eax
	movzbl	5(%eax), %eax
	movzbl	%al, %eax
	imull	%edx, %eax
	movl	%eax, -16(%ebp)
L27:
	.loc 1 201 0
	movl	$0, -20(%ebp)
	jmp	L28
L30:
	.loc 1 203 0
	movl	12(%ebp), %eax
	movl	(%eax), %edx
	movl	16(%ebp), %eax
	movzbl	4(%eax), %eax
	movzbl	%al, %eax
	imull	-28(%ebp), %eax
	movl	%eax, %ecx
	movl	16(%ebp), %eax
	movzbl	5(%eax), %eax
	movzbl	%al, %eax
	imull	%eax, %ecx
	movl	-20(%ebp), %eax
	addl	%ecx, %eax
	addl	%eax, %edx
	.loc 1 204 0
	movl	8(%ebp), %eax
	movl	(%eax), %ecx
	movl	16(%ebp), %eax
	movzbl	4(%eax), %eax
	movzbl	%al, %eax
	imull	-28(%ebp), %eax
	movl	%eax, %ebx
	movl	16(%ebp), %eax
	movzbl	5(%eax), %eax
	movzbl	%al, %eax
	imull	%eax, %ebx
	movl	-24(%ebp), %eax
	addl	%ebx, %eax
	addl	%ecx, %eax
	movzbl	(%eax), %eax
	.loc 1 203 0
	movb	%al, (%edx)
	.loc 1 205 0
	movl	16(%ebp), %eax
	movzbl	4(%eax), %eax
	movzbl	%al, %eax
	addl	%eax, -24(%ebp)
	.loc 1 207 0
	movl	-24(%ebp), %eax
	cmpl	-16(%ebp), %eax
	jb	L29
	.loc 1 209 0
	addb	$1, -29(%ebp)
	.loc 1 210 0
	movzbl	-29(%ebp), %eax
	movl	%eax, -24(%ebp)
L29:
	.loc 1 201 0 discriminator 2
	addl	$1, -20(%ebp)
L28:
	.loc 1 201 0 is_stmt 0 discriminator 1
	movl	-20(%ebp), %eax
	cmpl	-16(%ebp), %eax
	jb	L30
	.loc 1 187 0 is_stmt 1 discriminator 2
	addl	$1, -28(%ebp)
L25:
	.loc 1 187 0 is_stmt 0 discriminator 1
	movl	-28(%ebp), %eax
	cmpl	-36(%ebp), %eax
	jb	L31
	.loc 1 185 0 is_stmt 1
	jmp	L33
L24:
	.loc 1 217 0
	movl	$7, -12(%ebp)
	.loc 1 185 0
	jmp	L33
L23:
	.loc 1 222 0
	movl	$19, -12(%ebp)
L33:
	.loc 1 225 0
	movl	-12(%ebp), %eax
	movl	%eax, (%esp)
	call	_Error_HandleErr
	.loc 1 226 0
	addl	$52, %esp
	popl	%ebx
	.cfi_restore 3
	popl	%ebp
	.cfi_restore 5
	.cfi_def_cfa 4, 4
	ret
	.cfi_endproc
LFE21:
	.def	_BlockDeinterleaver;	.scl	3;	.type	32;	.endef
_BlockDeinterleaver:
LFB22:
	.loc 1 243 0
	.cfi_startproc
	pushl	%ebp
	.cfi_def_cfa_offset 8
	.cfi_offset 5, -8
	movl	%esp, %ebp
	.cfi_def_cfa_register 5
	pushl	%esi
	pushl	%ebx
	subl	$64, %esp
	.cfi_offset 6, -12
	.cfi_offset 3, -16
	.loc 1 243 0
	movl	%esp, %eax
	movl	%eax, %esi
	.loc 1 244 0
	movl	$1, 4(%esp)
	movl	$_BlockDeinterleaver, (%esp)
	call	_Debug_SetWatermark
	.loc 1 246 0
	movl	$0, -12(%ebp)
	.loc 1 247 0
	movl	8(%ebp), %eax
	movl	4(%eax), %eax
	leal	-1(%eax), %edx
	movl	16(%ebp), %eax
	movzbl	4(%eax), %eax
	movzbl	%al, %ecx
	movl	16(%ebp), %eax
	movzbl	5(%eax), %eax
	movzbl	%al, %eax
	imull	%ecx, %eax
	movl	%eax, %ecx
	movl	%edx, %eax
	movl	$0, %edx
	divl	%ecx
	addl	$1, %eax
	movl	%eax, -36(%ebp)
	.loc 1 248 0
	movl	16(%ebp), %eax
	movzbl	4(%eax), %eax
	movzbl	%al, %eax
	imull	-36(%ebp), %eax
	movl	%eax, %edx
	movl	16(%ebp), %eax
	movzbl	5(%eax), %eax
	movzbl	%al, %eax
	imull	%eax, %edx
	movl	8(%ebp), %eax
	movl	4(%eax), %eax
	subl	%eax, %edx
	movl	%edx, %eax
	movl	%eax, -40(%ebp)
	.loc 1 251 0
	movl	16(%ebp), %eax
	movzbl	4(%eax), %eax
	movzbl	%al, %eax
	subl	$1, %eax
	movl	%eax, -44(%ebp)
	movl	16(%ebp), %eax
	movzbl	4(%eax), %eax
	movzbl	%al, %eax
	movl	$16, %edx
	subl	$1, %edx
	addl	%edx, %eax
	movl	$16, %ebx
	movl	$0, %edx
	divl	%ebx
	imull	$16, %eax, %eax
	call	___chkstk_ms
	subl	%eax, %esp
	leal	12(%esp), %eax
	addl	$0, %eax
	movl	%eax, -48(%ebp)
	.loc 1 254 0
	movl	8(%ebp), %eax
	movl	8(%eax), %eax
	movl	%eax, 4(%esp)
	movl	8(%ebp), %eax
	movl	%eax, (%esp)
	call	_Memory_IsStreamValid
	testb	%al, %al
	je	L36
	.loc 1 255 0 discriminator 1
	movl	12(%ebp), %eax
	movl	8(%eax), %eax
	movl	%eax, 4(%esp)
	movl	12(%ebp), %eax
	movl	%eax, (%esp)
	call	_Memory_IsStreamValid
	.loc 1 254 0 discriminator 1
	testb	%al, %al
	je	L36
	.loc 1 257 0
	movl	8(%ebp), %eax
	movl	4(%eax), %edx
	movl	12(%ebp), %eax
	movl	4(%eax), %eax
	cmpl	%eax, %edx
	jne	L37
	.loc 1 259 0
	movl	16(%ebp), %eax
	movzbl	4(%eax), %eax
	movzbl	%al, %edx
	movl	-48(%ebp), %eax
	movl	%edx, 8(%esp)
	movl	$0, 4(%esp)
	movl	%eax, (%esp)
	call	_memset
	.loc 1 260 0
	movl	16(%ebp), %eax
	movzbl	4(%eax), %eax
	subl	$1, %eax
	movb	%al, -29(%ebp)
	.loc 1 261 0
	movl	$0, -28(%ebp)
	jmp	L38
L41:
	.loc 1 263 0
	movzbl	-29(%ebp), %eax
	movzbl	-29(%ebp), %edx
	movl	-48(%ebp), %ecx
	movzbl	(%ecx,%edx), %edx
	leal	1(%edx), %ecx
	movl	-48(%ebp), %edx
	movb	%cl, (%edx,%eax)
	.loc 1 265 0
	cmpb	$0, -29(%ebp)
	jne	L39
	.loc 1 267 0
	movl	16(%ebp), %eax
	movzbl	4(%eax), %eax
	subl	$1, %eax
	movb	%al, -29(%ebp)
	jmp	L40
L39:
	.loc 1 271 0
	subb	$1, -29(%ebp)
L40:
	.loc 1 261 0 discriminator 2
	addl	$1, -28(%ebp)
L38:
	.loc 1 261 0 is_stmt 0 discriminator 1
	movl	-28(%ebp), %eax
	cmpl	-40(%ebp), %eax
	jb	L41
	.loc 1 275 0 is_stmt 1
	movl	$0, -28(%ebp)
	jmp	L42
L49:
	.loc 1 277 0
	movb	$0, -29(%ebp)
	.loc 1 278 0
	movb	$0, -30(%ebp)
	.loc 1 279 0
	movl	$0, -24(%ebp)
	.loc 1 281 0
	movl	-36(%ebp), %eax
	subl	$1, %eax
	cmpl	-28(%ebp), %eax
	jne	L43
	.loc 1 283 0
	movl	8(%ebp), %eax
	movl	4(%eax), %edx
	movl	16(%ebp), %eax
	movzbl	4(%eax), %eax
	movzbl	%al, %eax
	imull	-28(%ebp), %eax
	movl	%eax, %ecx
	movl	16(%ebp), %eax
	movzbl	5(%eax), %eax
	movzbl	%al, %eax
	imull	%ecx, %eax
	subl	%eax, %edx
	movl	%edx, %eax
	movl	%eax, -16(%ebp)
	jmp	L44
L43:
	.loc 1 287 0
	movl	16(%ebp), %eax
	movzbl	4(%eax), %eax
	movzbl	%al, %edx
	movl	16(%ebp), %eax
	movzbl	5(%eax), %eax
	movzbl	%al, %eax
	imull	%edx, %eax
	movl	%eax, -16(%ebp)
L44:
	.loc 1 290 0
	movl	$0, -20(%ebp)
	jmp	L45
L48:
	.loc 1 292 0
	movl	12(%ebp), %eax
	movl	(%eax), %edx
	movl	16(%ebp), %eax
	movzbl	4(%eax), %eax
	movzbl	%al, %eax
	imull	-28(%ebp), %eax
	movl	%eax, %ecx
	movl	16(%ebp), %eax
	movzbl	5(%eax), %eax
	movzbl	%al, %eax
	imull	%eax, %ecx
	movl	-20(%ebp), %eax
	addl	%ecx, %eax
	addl	%eax, %edx
	.loc 1 293 0
	movl	8(%ebp), %eax
	movl	(%eax), %ecx
	movl	16(%ebp), %eax
	movzbl	4(%eax), %eax
	movzbl	%al, %eax
	imull	-28(%ebp), %eax
	movl	%eax, %ebx
	movl	16(%ebp), %eax
	movzbl	5(%eax), %eax
	movzbl	%al, %eax
	imull	%eax, %ebx
	movl	-24(%ebp), %eax
	addl	%ebx, %eax
	addl	%ecx, %eax
	movzbl	(%eax), %eax
	.loc 1 292 0
	movb	%al, (%edx)
	.loc 1 294 0
	movl	16(%ebp), %eax
	movzbl	5(%eax), %eax
	movzbl	%al, %eax
	addl	%eax, -24(%ebp)
	.loc 1 296 0
	movl	-36(%ebp), %eax
	subl	$1, %eax
	cmpl	-28(%ebp), %eax
	jne	L46
	.loc 1 298 0
	movzbl	-29(%ebp), %eax
	movl	-48(%ebp), %edx
	movzbl	(%edx,%eax), %eax
	movzbl	%al, %eax
	subl	%eax, -24(%ebp)
	.loc 1 299 0
	addb	$1, -29(%ebp)
L46:
	.loc 1 302 0
	movl	-24(%ebp), %eax
	cmpl	-16(%ebp), %eax
	jb	L47
	.loc 1 304 0
	addb	$1, -30(%ebp)
	.loc 1 305 0
	movzbl	-30(%ebp), %eax
	movl	%eax, -24(%ebp)
	.loc 1 306 0
	movb	$0, -29(%ebp)
L47:
	.loc 1 290 0 discriminator 2
	addl	$1, -20(%ebp)
L45:
	.loc 1 290 0 is_stmt 0 discriminator 1
	movl	-20(%ebp), %eax
	cmpl	-16(%ebp), %eax
	jb	L48
	.loc 1 275 0 is_stmt 1 discriminator 2
	addl	$1, -28(%ebp)
L42:
	.loc 1 275 0 is_stmt 0 discriminator 1
	movl	-28(%ebp), %eax
	cmpl	-36(%ebp), %eax
	jb	L49
	.loc 1 257 0 is_stmt 1
	jmp	L51
L37:
	.loc 1 313 0
	movl	$7, -12(%ebp)
	.loc 1 257 0
	jmp	L51
L36:
	.loc 1 318 0
	movl	$19, -12(%ebp)
L51:
	.loc 1 321 0
	movl	-12(%ebp), %eax
	movl	%eax, (%esp)
	call	_Error_HandleErr
	movl	%esi, %esp
	.loc 1 322 0
	leal	-8(%ebp), %esp
	popl	%ebx
	.cfi_restore 3
	popl	%esi
	.cfi_restore 6
	popl	%ebp
	.cfi_restore 5
	.cfi_def_cfa 4, 4
	ret
	.cfi_endproc
LFE22:
	.def	_ConvolutionalInterleaver;	.scl	3;	.type	32;	.endef
_ConvolutionalInterleaver:
LFB23:
	.loc 1 335 0
	.cfi_startproc
	pushl	%ebp
	.cfi_def_cfa_offset 8
	.cfi_offset 5, -8
	movl	%esp, %ebp
	.cfi_def_cfa_register 5
	pushl	%edi
	pushl	%esi
	pushl	%ebx
	subl	$92, %esp
	.cfi_offset 7, -12
	.cfi_offset 6, -16
	.cfi_offset 3, -20
	.loc 1 335 0
	movl	%esp, %eax
	movl	%eax, -80(%ebp)
	.loc 1 336 0
	movl	$1, 4(%esp)
	movl	$_ConvolutionalInterleaver, (%esp)
	call	_Debug_SetWatermark
	.loc 1 338 0
	movl	$0, -28(%ebp)
	.loc 1 339 0
	movl	16(%ebp), %eax
	movzbl	4(%eax), %eax
	movzbl	%al, %eax
	subl	$1, %eax
	movw	%ax, -48(%ebp)
	.loc 1 340 0
	movl	16(%ebp), %eax
	movzbl	5(%eax), %eax
	movzbl	%al, %edx
	movl	16(%ebp), %eax
	movzbl	4(%eax), %eax
	movzbl	%al, %eax
	subl	$1, %eax
	imull	%edx, %eax
	movw	%ax, -50(%ebp)
	.loc 1 341 0
	movzwl	-50(%ebp), %eax
	subl	$1, %eax
	movl	%eax, -56(%ebp)
	movzwl	-50(%ebp), %eax
	addl	%eax, %eax
	movl	%eax, -76(%ebp)
	movzwl	-48(%ebp), %eax
	subl	$1, %eax
	movl	%eax, -60(%ebp)
	movzwl	-50(%ebp), %eax
	movl	%eax, %ecx
	movl	$0, %ebx
	movzwl	-48(%ebp), %eax
	movl	$0, %edx
	movl	%ebx, %edi
	imull	%eax, %edi
	movl	%edx, %esi
	imull	%ecx, %esi
	addl	%edi, %esi
	mull	%ecx
	leal	(%esi,%edx), %ecx
	movl	%ecx, %edx
	movzwl	-50(%ebp), %eax
	movl	%eax, %ecx
	movl	$0, %ebx
	movzwl	-48(%ebp), %eax
	movl	$0, %edx
	movl	%ebx, %edi
	imull	%eax, %edi
	movl	%edx, %esi
	imull	%ecx, %esi
	addl	%edi, %esi
	mull	%ecx
	leal	(%esi,%edx), %ecx
	movl	%ecx, %edx
	movzwl	-50(%ebp), %edx
	movzwl	-48(%ebp), %eax
	imull	%edx, %eax
	addl	%eax, %eax
	leal	1(%eax), %edx
	movl	$16, %eax
	subl	$1, %eax
	addl	%edx, %eax
	movl	$16, %edi
	movl	$0, %edx
	divl	%edi
	imull	$16, %eax, %eax
	call	___chkstk_ms
	subl	%eax, %esp
	leal	8(%esp), %eax
	addl	$1, %eax
	shrl	%eax
	addl	%eax, %eax
	movl	%eax, -64(%ebp)
	.loc 1 343 0
	movl	$0, -40(%ebp)
	.loc 1 344 0
	movl	$0, -44(%ebp)
	.loc 1 345 0
	movw	$-1, -46(%ebp)
	.loc 1 347 0
	movl	8(%ebp), %eax
	movl	8(%eax), %eax
	movl	%eax, 4(%esp)
	movl	8(%ebp), %eax
	movl	%eax, (%esp)
	call	_Memory_IsStreamValid
	testb	%al, %al
	je	L54
	.loc 1 348 0 discriminator 1
	movl	12(%ebp), %eax
	movl	8(%eax), %eax
	movl	%eax, 4(%esp)
	movl	12(%ebp), %eax
	movl	%eax, (%esp)
	call	_Memory_IsStreamValid
	.loc 1 347 0 discriminator 1
	testb	%al, %al
	je	L54
	.loc 1 350 0
	movl	8(%ebp), %eax
	movl	4(%eax), %edx
	movl	12(%ebp), %eax
	movl	4(%eax), %eax
	cmpl	%eax, %edx
	jne	L55
	.loc 1 352 0
	movl	$0, -32(%ebp)
	jmp	L56
L59:
	.loc 1 354 0
	movl	$0, -36(%ebp)
	jmp	L57
L58:
	.loc 1 356 0 discriminator 3
	movl	-76(%ebp), %edx
	shrl	%edx
	movl	-64(%ebp), %eax
	movl	%edx, %ecx
	imull	-32(%ebp), %ecx
	movl	-36(%ebp), %edx
	addl	%ecx, %edx
	movw	$-1, (%eax,%edx,2)
	.loc 1 354 0 discriminator 3
	addl	$1, -36(%ebp)
L57:
	.loc 1 354 0 is_stmt 0 discriminator 1
	movzwl	-50(%ebp), %eax
	cmpl	-36(%ebp), %eax
	ja	L58
	.loc 1 352 0 is_stmt 1 discriminator 2
	addl	$1, -32(%ebp)
L56:
	.loc 1 352 0 is_stmt 0 discriminator 1
	movzwl	-48(%ebp), %eax
	cmpl	-32(%ebp), %eax
	ja	L59
	.loc 1 360 0 is_stmt 1
	jmp	L60
L67:
	.loc 1 362 0
	cmpw	$-1, -46(%ebp)
	jne	L61
	.loc 1 364 0
	movl	12(%ebp), %eax
	movl	(%eax), %edx
	movl	-44(%ebp), %eax
	addl	%eax, %edx
	movl	8(%ebp), %eax
	movl	(%eax), %ecx
	movl	-40(%ebp), %eax
	addl	%ecx, %eax
	movzbl	(%eax), %eax
	movb	%al, (%edx)
	.loc 1 365 0
	addl	$1, -44(%ebp)
	jmp	L62
L61:
	.loc 1 369 0
	movl	-76(%ebp), %ebx
	shrl	%ebx
	movswl	-46(%ebp), %edx
	movl	16(%ebp), %eax
	movzbl	5(%eax), %eax
	movzbl	%al, %eax
	movswl	-46(%ebp), %ecx
	addl	$1, %ecx
	imull	%ecx, %eax
	leal	-1(%eax), %ecx
	movl	-64(%ebp), %eax
	imull	%ebx, %edx
	addl	%ecx, %edx
	movzwl	(%eax,%edx,2), %eax
	cmpw	$-1, %ax
	je	L63
	.loc 1 371 0
	movl	12(%ebp), %eax
	movl	(%eax), %edx
	movl	-44(%ebp), %eax
	leal	(%edx,%eax), %ebx
	.loc 1 372 0
	movl	-76(%ebp), %edi
	shrl	%edi
	movswl	-46(%ebp), %esi
	movl	16(%ebp), %eax
	movzbl	5(%eax), %eax
	movzbl	%al, %edx
	movswl	-46(%ebp), %eax
	addl	$1, %eax
	imull	%edx, %eax
	leal	-1(%eax), %ecx
	movl	-64(%ebp), %edx
	movl	%edi, %eax
	imull	%esi, %eax
	addl	%ecx, %eax
	movzwl	(%edx,%eax,2), %eax
	.loc 1 371 0
	movb	%al, (%ebx)
	.loc 1 373 0
	addl	$1, -44(%ebp)
L63:
	.loc 1 376 0
	movl	16(%ebp), %eax
	movzbl	5(%eax), %eax
	movzbl	%al, %eax
	movswl	-46(%ebp), %edx
	addl	$1, %edx
	imull	%edx, %eax
	subl	$1, %eax
	movl	%eax, -36(%ebp)
	jmp	L64
L65:
	.loc 1 378 0 discriminator 3
	movl	-76(%ebp), %esi
	movl	%esi, %eax
	shrl	%eax
	movl	%eax, -84(%ebp)
	movswl	-46(%ebp), %edi
	shrl	%esi
	movswl	-46(%ebp), %ecx
	movl	-36(%ebp), %eax
	leal	-1(%eax), %ebx
	movl	-64(%ebp), %edx
	imull	%ecx, %esi
	movl	%esi, %eax
	addl	%ebx, %eax
	movzwl	(%edx,%eax,2), %edx
	movl	-64(%ebp), %eax
	movl	-84(%ebp), %ebx
	imull	%edi, %ebx
	movl	-36(%ebp), %ecx
	addl	%ebx, %ecx
	movw	%dx, (%eax,%ecx,2)
	.loc 1 376 0 discriminator 3
	subl	$1, -36(%ebp)
L64:
	.loc 1 376 0 is_stmt 0 discriminator 1
	cmpl	$0, -36(%ebp)
	jne	L65
	.loc 1 380 0 is_stmt 1
	movl	-76(%ebp), %ebx
	shrl	%ebx
	movswl	-46(%ebp), %edx
	movl	8(%ebp), %eax
	movl	(%eax), %ecx
	movl	-40(%ebp), %eax
	addl	%ecx, %eax
	movzbl	(%eax), %eax
	movzbl	%al, %ecx
	movl	-64(%ebp), %eax
	imull	%ebx, %edx
	movw	%cx, (%eax,%edx,2)
L62:
	.loc 1 383 0
	addl	$1, -40(%ebp)
	.loc 1 385 0
	movl	16(%ebp), %eax
	movzbl	4(%eax), %eax
	movzbl	%al, %eax
	leal	-2(%eax), %edx
	movswl	-46(%ebp), %eax
	cmpl	%eax, %edx
	jne	L66
	.loc 1 387 0
	movw	$-1, -46(%ebp)
	jmp	L60
L66:
	.loc 1 391 0
	movzwl	-46(%ebp), %eax
	addl	$1, %eax
	movw	%ax, -46(%ebp)
L60:
	.loc 1 360 0
	movl	8(%ebp), %eax
	movl	4(%eax), %eax
	cmpl	-40(%ebp), %eax
	ja	L67
	.loc 1 395 0
	cmpw	$-1, -46(%ebp)
	jne	L69
	.loc 1 397 0
	movw	$0, -46(%ebp)
	.loc 1 400 0
	jmp	L69
L74:
	.loc 1 402 0
	movl	-76(%ebp), %ebx
	shrl	%ebx
	movswl	-46(%ebp), %edx
	movl	16(%ebp), %eax
	movzbl	5(%eax), %eax
	movzbl	%al, %eax
	movswl	-46(%ebp), %ecx
	addl	$1, %ecx
	imull	%ecx, %eax
	leal	-1(%eax), %ecx
	movl	-64(%ebp), %eax
	imull	%ebx, %edx
	addl	%ecx, %edx
	movzwl	(%eax,%edx,2), %eax
	cmpw	$-1, %ax
	je	L70
	.loc 1 404 0
	movl	12(%ebp), %eax
	movl	(%eax), %edx
	movl	-44(%ebp), %eax
	leal	(%edx,%eax), %ebx
	.loc 1 405 0
	movl	-76(%ebp), %edi
	shrl	%edi
	movswl	-46(%ebp), %esi
	movl	16(%ebp), %eax
	movzbl	5(%eax), %eax
	movzbl	%al, %edx
	movswl	-46(%ebp), %eax
	addl	$1, %eax
	imull	%edx, %eax
	leal	-1(%eax), %ecx
	movl	-64(%ebp), %edx
	movl	%edi, %eax
	imull	%esi, %eax
	addl	%ecx, %eax
	movzwl	(%edx,%eax,2), %eax
	.loc 1 404 0
	movb	%al, (%ebx)
	.loc 1 406 0
	addl	$1, -44(%ebp)
L70:
	.loc 1 409 0
	movl	16(%ebp), %eax
	movzbl	5(%eax), %eax
	movzbl	%al, %eax
	movswl	-46(%ebp), %edx
	addl	$1, %edx
	imull	%edx, %eax
	subl	$1, %eax
	movl	%eax, -36(%ebp)
	jmp	L71
L72:
	.loc 1 411 0 discriminator 3
	movl	-76(%ebp), %esi
	movl	%esi, %eax
	shrl	%eax
	movl	%eax, -84(%ebp)
	movswl	-46(%ebp), %edi
	shrl	%esi
	movswl	-46(%ebp), %ecx
	movl	-36(%ebp), %eax
	leal	-1(%eax), %ebx
	movl	-64(%ebp), %edx
	imull	%ecx, %esi
	movl	%esi, %eax
	addl	%ebx, %eax
	movzwl	(%edx,%eax,2), %edx
	movl	-64(%ebp), %eax
	movl	-84(%ebp), %ebx
	imull	%edi, %ebx
	movl	-36(%ebp), %ecx
	addl	%ebx, %ecx
	movw	%dx, (%eax,%ecx,2)
	.loc 1 409 0 discriminator 3
	subl	$1, -36(%ebp)
L71:
	.loc 1 409 0 is_stmt 0 discriminator 1
	cmpl	$0, -36(%ebp)
	jne	L72
	.loc 1 414 0 is_stmt 1
	movl	-76(%ebp), %ecx
	shrl	%ecx
	movswl	-46(%ebp), %edx
	movl	-64(%ebp), %eax
	imull	%ecx, %edx
	movw	$-1, (%eax,%edx,2)
	.loc 1 416 0
	movl	16(%ebp), %eax
	movzbl	4(%eax), %eax
	movzbl	%al, %eax
	leal	-2(%eax), %edx
	movswl	-46(%ebp), %eax
	cmpl	%eax, %edx
	jne	L73
	.loc 1 418 0
	movw	$0, -46(%ebp)
	jmp	L69
L73:
	.loc 1 422 0
	movzwl	-46(%ebp), %eax
	addl	$1, %eax
	movw	%ax, -46(%ebp)
L69:
	.loc 1 400 0
	movl	8(%ebp), %eax
	movl	4(%eax), %eax
	cmpl	-44(%ebp), %eax
	ja	L74
	.loc 1 350 0
	jmp	L76
L55:
	.loc 1 428 0
	movl	$7, -28(%ebp)
	.loc 1 350 0
	jmp	L76
L54:
	.loc 1 433 0
	movl	$19, -28(%ebp)
L76:
	.loc 1 436 0
	movl	-28(%ebp), %eax
	movl	%eax, (%esp)
	call	_Error_HandleErr
	movl	-80(%ebp), %esp
	.loc 1 437 0
	leal	-12(%ebp), %esp
	popl	%ebx
	.cfi_restore 3
	popl	%esi
	.cfi_restore 6
	popl	%edi
	.cfi_restore 7
	popl	%ebp
	.cfi_restore 5
	.cfi_def_cfa 4, 4
	ret
	.cfi_endproc
LFE23:
	.def	_ConvolutionalDeinterleaver;	.scl	3;	.type	32;	.endef
_ConvolutionalDeinterleaver:
LFB24:
	.loc 1 450 0
	.cfi_startproc
	pushl	%ebp
	.cfi_def_cfa_offset 8
	.cfi_offset 5, -8
	movl	%esp, %ebp
	.cfi_def_cfa_register 5
	pushl	%edi
	pushl	%esi
	pushl	%ebx
	subl	$92, %esp
	.cfi_offset 7, -12
	.cfi_offset 6, -16
	.cfi_offset 3, -20
	.loc 1 450 0
	movl	%esp, %eax
	movl	%eax, -80(%ebp)
	.loc 1 451 0
	movl	$1, 4(%esp)
	movl	$_ConvolutionalDeinterleaver, (%esp)
	call	_Debug_SetWatermark
	.loc 1 453 0
	movl	$0, -28(%ebp)
	.loc 1 454 0
	movl	16(%ebp), %eax
	movzbl	4(%eax), %eax
	movzbl	%al, %eax
	subl	$1, %eax
	movw	%ax, -50(%ebp)
	.loc 1 455 0
	movl	16(%ebp), %eax
	movzbl	5(%eax), %eax
	movzbl	%al, %edx
	movl	16(%ebp), %eax
	movzbl	4(%eax), %eax
	movzbl	%al, %eax
	subl	$1, %eax
	imull	%edx, %eax
	movw	%ax, -52(%ebp)
	.loc 1 456 0
	movzwl	-52(%ebp), %eax
	subl	$1, %eax
	movl	%eax, -56(%ebp)
	movzwl	-52(%ebp), %eax
	addl	%eax, %eax
	movl	%eax, -76(%ebp)
	movzwl	-50(%ebp), %eax
	subl	$1, %eax
	movl	%eax, -60(%ebp)
	movzwl	-52(%ebp), %eax
	movl	%eax, %ecx
	movl	$0, %ebx
	movzwl	-50(%ebp), %eax
	movl	$0, %edx
	movl	%ebx, %edi
	imull	%eax, %edi
	movl	%edx, %esi
	imull	%ecx, %esi
	addl	%edi, %esi
	mull	%ecx
	leal	(%esi,%edx), %ecx
	movl	%ecx, %edx
	movzwl	-52(%ebp), %eax
	movl	%eax, %ecx
	movl	$0, %ebx
	movzwl	-50(%ebp), %eax
	movl	$0, %edx
	movl	%ebx, %edi
	imull	%eax, %edi
	movl	%edx, %esi
	imull	%ecx, %esi
	addl	%edi, %esi
	mull	%ecx
	leal	(%esi,%edx), %ecx
	movl	%ecx, %edx
	movzwl	-52(%ebp), %edx
	movzwl	-50(%ebp), %eax
	imull	%edx, %eax
	addl	%eax, %eax
	leal	1(%eax), %edx
	movl	$16, %eax
	subl	$1, %eax
	addl	%edx, %eax
	movl	$16, %edi
	movl	$0, %edx
	divl	%edi
	imull	$16, %eax, %eax
	call	___chkstk_ms
	subl	%eax, %esp
	leal	8(%esp), %eax
	addl	$1, %eax
	shrl	%eax
	addl	%eax, %eax
	movl	%eax, -64(%ebp)
	.loc 1 458 0
	movl	$0, -40(%ebp)
	.loc 1 459 0
	movl	$0, -44(%ebp)
	.loc 1 460 0
	movw	$0, -46(%ebp)
	.loc 1 461 0
	movw	$0, -48(%ebp)
	.loc 1 463 0
	movl	8(%ebp), %eax
	movl	8(%eax), %eax
	movl	%eax, 4(%esp)
	movl	8(%ebp), %eax
	movl	%eax, (%esp)
	call	_Memory_IsStreamValid
	testb	%al, %al
	je	L79
	.loc 1 464 0 discriminator 1
	movl	12(%ebp), %eax
	movl	8(%eax), %eax
	movl	%eax, 4(%esp)
	movl	12(%ebp), %eax
	movl	%eax, (%esp)
	call	_Memory_IsStreamValid
	.loc 1 463 0 discriminator 1
	testb	%al, %al
	je	L79
	.loc 1 466 0
	movl	8(%ebp), %eax
	movl	4(%eax), %edx
	movl	12(%ebp), %eax
	movl	4(%eax), %eax
	cmpl	%eax, %edx
	jne	L80
	.loc 1 468 0
	movl	$0, -32(%ebp)
	jmp	L81
L84:
	.loc 1 470 0
	movl	$0, -36(%ebp)
	jmp	L82
L83:
	.loc 1 472 0 discriminator 3
	movl	-76(%ebp), %edx
	shrl	%edx
	movl	-64(%ebp), %eax
	movl	%edx, %ecx
	imull	-32(%ebp), %ecx
	movl	-36(%ebp), %edx
	addl	%ecx, %edx
	movw	$-1, (%eax,%edx,2)
	.loc 1 470 0 discriminator 3
	addl	$1, -36(%ebp)
L82:
	.loc 1 470 0 is_stmt 0 discriminator 1
	movzwl	-52(%ebp), %eax
	cmpl	-36(%ebp), %eax
	ja	L83
	.loc 1 468 0 is_stmt 1 discriminator 2
	addl	$1, -32(%ebp)
L81:
	.loc 1 468 0 is_stmt 0 discriminator 1
	movzwl	-50(%ebp), %eax
	cmpl	-32(%ebp), %eax
	ja	L84
	.loc 1 476 0 is_stmt 1
	jmp	L85
L96:
	.loc 1 478 0
	movl	16(%ebp), %eax
	movzbl	4(%eax), %eax
	movzbl	%al, %eax
	leal	-1(%eax), %edx
	movzwl	-46(%ebp), %eax
	cmpl	%eax, %edx
	jne	L86
	.loc 1 479 0 discriminator 1
	movzwl	-46(%ebp), %edx
	movl	16(%ebp), %eax
	movzbl	4(%eax), %eax
	movzbl	%al, %ecx
	movzwl	-48(%ebp), %ebx
	movl	16(%ebp), %eax
	movzbl	5(%eax), %eax
	movzbl	%al, %esi
	movzwl	-46(%ebp), %eax
	imull	%esi, %eax
	subl	%eax, %ebx
	movl	%ebx, %eax
	imull	%ecx, %eax
	addl	%edx, %eax
	movl	%eax, %edx
	movl	8(%ebp), %eax
	movl	4(%eax), %eax
	.loc 1 478 0 discriminator 1
	cmpl	%eax, %edx
	jnb	L86
	.loc 1 481 0
	movl	12(%ebp), %eax
	movl	(%eax), %edx
	movl	-44(%ebp), %eax
	addl	%eax, %edx
	movl	8(%ebp), %eax
	movl	(%eax), %ecx
	movl	-40(%ebp), %eax
	addl	%ecx, %eax
	movzbl	(%eax), %eax
	movb	%al, (%edx)
	.loc 1 482 0
	addl	$1, -44(%ebp)
	.loc 1 483 0
	addl	$1, -40(%ebp)
	jmp	L87
L86:
	.loc 1 487 0
	movl	-76(%ebp), %esi
	shrl	%esi
	movzwl	-46(%ebp), %edx
	movl	16(%ebp), %eax
	movzbl	5(%eax), %eax
	movzbl	%al, %ecx
	movl	16(%ebp), %eax
	movzbl	4(%eax), %eax
	movzbl	%al, %ebx
	movzwl	-46(%ebp), %eax
	subl	%eax, %ebx
	movl	%ebx, %eax
	subl	$1, %eax
	imull	%ecx, %eax
	leal	-1(%eax), %ecx
	movl	-64(%ebp), %eax
	imull	%esi, %edx
	addl	%ecx, %edx
	movzwl	(%eax,%edx,2), %eax
	cmpw	$-1, %ax
	je	L88
	.loc 1 489 0
	movl	12(%ebp), %eax
	movl	(%eax), %edx
	movl	-44(%ebp), %eax
	leal	(%edx,%eax), %ebx
	.loc 1 490 0
	movl	-76(%ebp), %edi
	shrl	%edi
	movzwl	-46(%ebp), %esi
	movl	16(%ebp), %eax
	movzbl	5(%eax), %eax
	movzbl	%al, %ecx
	movl	16(%ebp), %eax
	movzbl	4(%eax), %eax
	movzbl	%al, %edx
	movzwl	-46(%ebp), %eax
	subl	%eax, %edx
	movl	%edx, %eax
	subl	$1, %eax
	imull	%ecx, %eax
	leal	-1(%eax), %ecx
	movl	-64(%ebp), %edx
	movl	%edi, %eax
	imull	%esi, %eax
	addl	%ecx, %eax
	movzwl	(%edx,%eax,2), %eax
	.loc 1 489 0
	movb	%al, (%ebx)
	.loc 1 491 0
	addl	$1, -44(%ebp)
L88:
	.loc 1 494 0
	movl	16(%ebp), %eax
	movzbl	5(%eax), %eax
	movzbl	%al, %edx
	movl	16(%ebp), %eax
	movzbl	4(%eax), %eax
	movzbl	%al, %ecx
	movzwl	-46(%ebp), %eax
	subl	%eax, %ecx
	movl	%ecx, %eax
	subl	$1, %eax
	imull	%edx, %eax
	subl	$1, %eax
	movl	%eax, -36(%ebp)
	jmp	L89
L90:
	.loc 1 496 0 discriminator 3
	movl	-76(%ebp), %esi
	movl	%esi, %eax
	shrl	%eax
	movl	%eax, -84(%ebp)
	movzwl	-46(%ebp), %edi
	shrl	%esi
	movzwl	-46(%ebp), %ecx
	movl	-36(%ebp), %eax
	leal	-1(%eax), %ebx
	movl	-64(%ebp), %edx
	imull	%ecx, %esi
	movl	%esi, %eax
	addl	%ebx, %eax
	movzwl	(%edx,%eax,2), %edx
	movl	-64(%ebp), %eax
	movl	-84(%ebp), %ebx
	imull	%edi, %ebx
	movl	-36(%ebp), %ecx
	addl	%ebx, %ecx
	movw	%dx, (%eax,%ecx,2)
	.loc 1 494 0 discriminator 3
	subl	$1, -36(%ebp)
L89:
	.loc 1 494 0 is_stmt 0 discriminator 1
	cmpl	$0, -36(%ebp)
	jne	L90
	.loc 1 499 0 is_stmt 1
	movzwl	-46(%ebp), %edx
	movl	16(%ebp), %eax
	movzbl	4(%eax), %eax
	movzbl	%al, %ecx
	movzwl	-48(%ebp), %ebx
	movl	16(%ebp), %eax
	movzbl	5(%eax), %eax
	movzbl	%al, %esi
	movzwl	-46(%ebp), %eax
	imull	%esi, %eax
	subl	%eax, %ebx
	movl	%ebx, %eax
	imull	%ecx, %eax
	addl	%edx, %eax
	movl	%eax, %edx
	movl	8(%ebp), %eax
	movl	4(%eax), %eax
	cmpl	%eax, %edx
	jnb	L91
	.loc 1 501 0
	movl	-76(%ebp), %ebx
	shrl	%ebx
	movzwl	-46(%ebp), %edx
	movl	8(%ebp), %eax
	movl	(%eax), %ecx
	movl	-40(%ebp), %eax
	addl	%ecx, %eax
	movzbl	(%eax), %eax
	movzbl	%al, %ecx
	movl	-64(%ebp), %eax
	imull	%ebx, %edx
	movw	%cx, (%eax,%edx,2)
	.loc 1 502 0
	addl	$1, -40(%ebp)
	jmp	L87
L91:
	.loc 1 506 0
	movl	-76(%ebp), %ecx
	shrl	%ecx
	movzwl	-46(%ebp), %edx
	movl	-64(%ebp), %eax
	imull	%ecx, %edx
	movw	$-1, (%eax,%edx,2)
L87:
	.loc 1 510 0
	movzwl	-48(%ebp), %edx
	movl	16(%ebp), %eax
	movzbl	5(%eax), %eax
	movzbl	%al, %ecx
	movl	16(%ebp), %eax
	movzbl	4(%eax), %eax
	movzbl	%al, %eax
	subl	$1, %eax
	imull	%ecx, %eax
	cmpl	%eax, %edx
	jge	L92
	.loc 1 512 0
	movzwl	-46(%ebp), %ecx
	movzwl	-48(%ebp), %eax
	movl	16(%ebp), %edx
	movzbl	5(%edx), %edx
	movzbl	%dl, %edi
	cltd
	idivl	%edi
	cmpl	%eax, %ecx
	jne	L93
	.loc 1 514 0
	movw	$0, -46(%ebp)
	.loc 1 515 0
	addw	$1, -48(%ebp)
	jmp	L85
L93:
	.loc 1 519 0
	addw	$1, -46(%ebp)
	jmp	L85
L92:
	.loc 1 524 0
	movl	16(%ebp), %eax
	movzbl	4(%eax), %eax
	movzbl	%al, %eax
	leal	-1(%eax), %edx
	movzwl	-46(%ebp), %eax
	cmpl	%eax, %edx
	jne	L95
	.loc 1 526 0
	movw	$0, -46(%ebp)
	.loc 1 527 0
	addw	$1, -48(%ebp)
	jmp	L85
L95:
	.loc 1 531 0
	addw	$1, -46(%ebp)
L85:
	.loc 1 476 0
	movl	8(%ebp), %eax
	movl	4(%eax), %eax
	cmpl	-44(%ebp), %eax
	ja	L96
	.loc 1 466 0
	jmp	L98
L80:
	.loc 1 538 0
	movl	$7, -28(%ebp)
	.loc 1 466 0
	jmp	L98
L79:
	.loc 1 543 0
	movl	$19, -28(%ebp)
L98:
	.loc 1 546 0
	movl	-28(%ebp), %eax
	movl	%eax, (%esp)
	call	_Error_HandleErr
	movl	-80(%ebp), %esp
	.loc 1 547 0
	leal	-12(%ebp), %esp
	popl	%ebx
	.cfi_restore 3
	popl	%esi
	.cfi_restore 6
	popl	%edi
	.cfi_restore 7
	popl	%ebp
	.cfi_restore 5
	.cfi_def_cfa 4, 4
	ret
	.cfi_endproc
LFE24:
Letext0:
	.file 2 "c:/mingw/include/stdio.h"
	.file 3 "c:/mingw/include/stdint.h"
	.file 4 "c:/mingw/include/stdlib.h"
	.file 5 "c:/mingw/include/time.h"
	.file 6 "src/error.h"
	.file 7 "src/memory.h"
	.file 8 "src/interleaving.h"
	.file 9 "src/debug.h"