	.file	"main.c"
	.text
Ltext0:
.lcomm _elapsedTime,4,4
.lcomm _crcParam,12,4
.lcomm _scrParam,16,4
.lcomm _rsParam,16,4
.lcomm _ccParam,16,4
.lcomm _modParam,12,4
.lcomm _chanParam,16,4
.lcomm _dgbParam,76,32
	.def	___main;	.scl	2;	.type	32;	.endef
	.section .rdata,"dr"
LC0:
	.ascii "\12 >> Starting execution...\0"
	.align 4
LC2:
	.ascii " >> Execution completed successfully in %1.3f seconds!\12\0"
	.text
	.globl	_main
	.def	_main;	.scl	2;	.type	32;	.endef
_main:
LFB18:
	.file 1 "src/main.c"
	.loc 1 102 0
	.cfi_startproc
	pushl	%ebp
	.cfi_def_cfa_offset 8
	.cfi_offset 5, -8
	movl	%esp, %ebp
	.cfi_def_cfa_register 5
	andl	$-16, %esp
	subl	$192, %esp
	.loc 1 102 0
	call	___main
LVL0:
	.loc 1 104 0
	movl	$LC0, (%esp)
	call	_puts
	.loc 1 105 0
	call	_clock
	movl	%eax, _elapsedTime
	.loc 1 107 0
	movl	$_crcParam, (%esp)
	call	_Crc_ListParameters
	.loc 1 108 0
	movl	$_scrParam, (%esp)
	call	_Scramb_ListParameters
	.loc 1 109 0
	movl	$_rsParam, (%esp)
	call	_RsCod_ListParameters
	.loc 1 110 0
	movl	$_ccParam, (%esp)
	call	_CnvCod_ListParameters
	.loc 1 111 0
	movl	$_chanParam, (%esp)
	call	_Channel_ListParameters
	.loc 1 112 0
	movl	$_modParam, (%esp)
	call	_Modulation_ListParameters
	.loc 1 113 0
	movl	$_chanParam, 20(%esp)
	movl	$_modParam, 16(%esp)
	movl	$_ccParam, 12(%esp)
	movl	$_rsParam, 8(%esp)
	movl	$_scrParam, 4(%esp)
	movl	$_dgbParam, (%esp)
	call	_Debug_ListParameters
	.loc 1 115 0
	movl	$_dgbParam, 4(%esp)
	movl	$150, (%esp)
	call	_Debug_PrintParameters
	.loc 1 117 0
	movl	$0, 180(%esp)
	movl	$0, 184(%esp)
	movl	$0, 188(%esp)
	movl	$0, 168(%esp)
	movl	$0, 172(%esp)
	movl	$0, 176(%esp)
	movl	$0, 156(%esp)
	movl	$0, 160(%esp)
	movl	$0, 164(%esp)
	movl	$0, 144(%esp)
	movl	$0, 148(%esp)
	movl	$0, 152(%esp)
	movl	$0, 132(%esp)
	movl	$0, 136(%esp)
	movl	$0, 140(%esp)
	movl	$0, 120(%esp)
	movl	$0, 124(%esp)
	movl	$0, 128(%esp)
	movl	$0, 108(%esp)
	movl	$0, 112(%esp)
	movl	$0, 116(%esp)
	movl	$0, 96(%esp)
	movl	$0, 100(%esp)
	movl	$0, 104(%esp)
	movl	$0, 84(%esp)
	movl	$0, 88(%esp)
	movl	$2, 92(%esp)
	movl	$0, 72(%esp)
	movl	$0, 76(%esp)
	movl	$2, 80(%esp)
	movl	$0, 60(%esp)
	movl	$0, 64(%esp)
	movl	$1, 68(%esp)
	.loc 1 118 0
	movl	188(%esp), %eax
	movl	%eax, 8(%esp)
	movl	$150, 4(%esp)
	leal	180(%esp), %eax
	movl	%eax, (%esp)
	call	_Memory_AllocateStream
	movl	176(%esp), %eax
	movl	%eax, 8(%esp)
	movl	$150, 4(%esp)
	leal	168(%esp), %eax
	movl	%eax, (%esp)
	call	_Memory_AllocateStream
	movl	164(%esp), %eax
	movl	%eax, 8(%esp)
	movl	$2, 4(%esp)
	leal	156(%esp), %eax
	movl	%eax, (%esp)
	call	_Memory_AllocateStream
	movl	152(%esp), %eax
	movl	%eax, 8(%esp)
	movl	$2, 4(%esp)
	leal	144(%esp), %eax
	movl	%eax, (%esp)
	call	_Memory_AllocateStream
	movl	140(%esp), %eax
	movl	%eax, 8(%esp)
	movl	$150, 4(%esp)
	leal	132(%esp), %eax
	movl	%eax, (%esp)
	call	_Memory_AllocateStream
	movl	128(%esp), %eax
	movl	%eax, 8(%esp)
	movl	$150, 4(%esp)
	leal	120(%esp), %eax
	movl	%eax, (%esp)
	call	_Memory_AllocateStream
	movl	116(%esp), %eax
	movl	%eax, 8(%esp)
	movl	$300, 4(%esp)
	leal	108(%esp), %eax
	movl	%eax, (%esp)
	call	_Memory_AllocateStream
	movl	104(%esp), %eax
	movl	%eax, 8(%esp)
	movl	$300, 4(%esp)
	leal	96(%esp), %eax
	movl	%eax, (%esp)
	call	_Memory_AllocateStream
	movl	92(%esp), %eax
	movl	%eax, 8(%esp)
	movl	$1200, 4(%esp)
	leal	84(%esp), %eax
	movl	%eax, (%esp)
	call	_Memory_AllocateStream
	movl	80(%esp), %eax
	movl	%eax, 8(%esp)
	movl	$1200, 4(%esp)
	leal	72(%esp), %eax
	movl	%eax, (%esp)
	call	_Memory_AllocateStream
	movl	68(%esp), %eax
	movl	%eax, 8(%esp)
	movl	$2400, 4(%esp)
	leal	60(%esp), %eax
	movl	%eax, (%esp)
	call	_Memory_AllocateStream
	.loc 1 121 0
	movl	$0, 4(%esp)
	leal	180(%esp), %eax
	movl	%eax, (%esp)
	call	_Debug_GenerateRandomBytes
	.loc 1 122 0
	movl	$_crcParam, 8(%esp)
	leal	156(%esp), %eax
	movl	%eax, 4(%esp)
	leal	180(%esp), %eax
	movl	%eax, (%esp)
	call	_Crc_CalculateChecksum
	.loc 1 123 0
	movl	$_scrParam, 8(%esp)
	leal	132(%esp), %eax
	movl	%eax, 4(%esp)
	leal	180(%esp), %eax
	movl	%eax, (%esp)
	call	_Scramb_Scrambler
	.loc 1 124 0
	movl	$_ccParam, 8(%esp)
	leal	108(%esp), %eax
	movl	%eax, 4(%esp)
	leal	132(%esp), %eax
	movl	%eax, (%esp)
	call	_CnvCod_Encoder
	.loc 1 125 0
	movl	_chanParam+4, %eax
	testl	%eax, %eax
	jne	L2
	.loc 1 127 0
	movl	$_chanParam, 8(%esp)
	leal	96(%esp), %eax
	movl	%eax, 4(%esp)
	leal	108(%esp), %eax
	movl	%eax, (%esp)
	call	_Channel_BSC
	.loc 1 128 0
	movl	$_ccParam, 8(%esp)
	leal	120(%esp), %eax
	movl	%eax, 4(%esp)
	leal	96(%esp), %eax
	movl	%eax, (%esp)
	call	_CnvCod_HardDecoder
	jmp	L3
L2:
	.loc 1 130 0
	movl	_chanParam+4, %eax
	cmpl	$1, %eax
	jne	L3
	.loc 1 132 0
	movl	$_modParam, 8(%esp)
	leal	84(%esp), %eax
	movl	%eax, 4(%esp)
	leal	108(%esp), %eax
	movl	%eax, (%esp)
	call	_Modulation_Mapper
	.loc 1 133 0
	movl	$_chanParam, 8(%esp)
	leal	72(%esp), %eax
	movl	%eax, 4(%esp)
	leal	84(%esp), %eax
	movl	%eax, (%esp)
	call	_Channel_AWGN
	.loc 1 134 0
	movl	_ccParam+12, %eax
	testl	%eax, %eax
	jne	L4
	.loc 1 136 0
	movl	$_modParam, 8(%esp)
	leal	96(%esp), %eax
	movl	%eax, 4(%esp)
	leal	72(%esp), %eax
	movl	%eax, (%esp)
	call	_Modulation_HardDemapper
	.loc 1 137 0
	movl	$_ccParam, 8(%esp)
	leal	120(%esp), %eax
	movl	%eax, 4(%esp)
	leal	96(%esp), %eax
	movl	%eax, (%esp)
	call	_CnvCod_HardDecoder
	jmp	L3
L4:
	.loc 1 139 0
	movl	_ccParam+12, %eax
	cmpl	$1, %eax
	jne	L3
	.loc 1 141 0
	movl	$_modParam, 8(%esp)
	leal	60(%esp), %eax
	movl	%eax, 4(%esp)
	leal	72(%esp), %eax
	movl	%eax, (%esp)
	call	_Modulation_SoftDemapper
	.loc 1 142 0
	movl	$_ccParam, 8(%esp)
	leal	120(%esp), %eax
	movl	%eax, 4(%esp)
	leal	60(%esp), %eax
	movl	%eax, (%esp)
	call	_CnvCod_SoftDecoder
L3:
	.loc 1 145 0
	movl	$_scrParam, 8(%esp)
	leal	168(%esp), %eax
	movl	%eax, 4(%esp)
	leal	120(%esp), %eax
	movl	%eax, (%esp)
	call	_Scramb_Descrambler
	.loc 1 146 0
	movl	$_crcParam, 8(%esp)
	leal	144(%esp), %eax
	movl	%eax, 4(%esp)
	leal	168(%esp), %eax
	movl	%eax, (%esp)
	call	_Crc_CalculateChecksum
	.loc 1 164 0
	movl	$_dgbParam, 12(%esp)
	movl	$7, 8(%esp)
	leal	96(%esp), %eax
	movl	%eax, 4(%esp)
	leal	108(%esp), %eax
	movl	%eax, (%esp)
	call	_Debug_CheckWrongBits
	.loc 1 165 0
	movl	$_dgbParam, 12(%esp)
	movl	$1, 8(%esp)
	leal	168(%esp), %eax
	movl	%eax, 4(%esp)
	leal	180(%esp), %eax
	movl	%eax, (%esp)
	call	_Debug_CheckWrongBits
	.loc 1 166 0
	movl	$_dgbParam, 12(%esp)
	movl	$3, 8(%esp)
	leal	144(%esp), %eax
	movl	%eax, 4(%esp)
	leal	156(%esp), %eax
	movl	%eax, (%esp)
	call	_Debug_CheckWrongBits
	.loc 1 174 0
	movl	$0, 4(%esp)
	leal	180(%esp), %eax
	movl	%eax, (%esp)
	call	_Memory_FreeStream
	movl	$0, 4(%esp)
	leal	168(%esp), %eax
	movl	%eax, (%esp)
	call	_Memory_FreeStream
	movl	$0, 4(%esp)
	leal	156(%esp), %eax
	movl	%eax, (%esp)
	call	_Memory_FreeStream
	movl	$0, 4(%esp)
	leal	144(%esp), %eax
	movl	%eax, (%esp)
	call	_Memory_FreeStream
	movl	$0, 4(%esp)
	leal	132(%esp), %eax
	movl	%eax, (%esp)
	call	_Memory_FreeStream
	movl	$0, 4(%esp)
	leal	120(%esp), %eax
	movl	%eax, (%esp)
	call	_Memory_FreeStream
	movl	$0, 4(%esp)
	leal	108(%esp), %eax
	movl	%eax, (%esp)
	call	_Memory_FreeStream
	movl	$0, 4(%esp)
	leal	96(%esp), %eax
	movl	%eax, (%esp)
	call	_Memory_FreeStream
	movl	$2, 4(%esp)
	leal	84(%esp), %eax
	movl	%eax, (%esp)
	call	_Memory_FreeStream
	movl	$2, 4(%esp)
	leal	72(%esp), %eax
	movl	%eax, (%esp)
	call	_Memory_FreeStream
	movl	$1, 4(%esp)
	leal	60(%esp), %eax
	movl	%eax, (%esp)
	call	_Memory_FreeStream
	.loc 1 175 0
	call	_clock
	movl	%eax, %edx
	movl	_elapsedTime, %eax
	subl	%eax, %edx
	movl	%edx, %eax
	movl	%eax, _elapsedTime
	.loc 1 177 0
	movl	_elapsedTime, %eax
	movl	%eax, 44(%esp)
	fildl	44(%esp)
	flds	LC1
	fdivrp	%st, %st(1)
	.loc 1 176 0
	fstpl	4(%esp)
	movl	$LC2, (%esp)
	call	_printf
	.loc 1 179 0
	movl	$0, %eax
	.loc 1 180 0
	leave
	.cfi_restore 5
	.cfi_def_cfa 4, 4
	ret
	.cfi_endproc
LFE18:
	.section .rdata,"dr"
	.align 4
LC1:
	.long	1148846080
	.text
Letext0:
	.file 2 "c:/mingw/include/stdio.h"
	.file 3 "c:/mingw/include/stdint.h"
	.file 4 "c:/mingw/include/stdlib.h"
	.file 5 "c:/mingw/include/time.h"
	.file 6 "src/system.h"
	.file 7 "src/memory.h"
	.file 8 "src/modulation.h"
	.file 9 "src/channel.h"
	.file 10 "src/convolutional.h"
	.file 11 "src/crc.h"
	.file 12 "src/reed_solomon.h"
	.file 13 "src/scrambling.h"
	.file 14 "src/debug.h"