	.file	"memory.c"
	.text
Ltext0:
	.globl	_Memory_AllocateStream
	.def	_Memory_AllocateStream;	.scl	2;	.type	32;	.endef
_Memory_AllocateStream:
LFB18:
	.file 1 "src/memory.c"
	.loc 1 52 0
	.cfi_startproc
	pushl	%ebp
	.cfi_def_cfa_offset 8
	.cfi_offset 5, -8
	movl	%esp, %ebp
	.cfi_def_cfa_register 5
	subl	$40, %esp
	.loc 1 53 0
	movl	$0, 4(%esp)
	movl	$_Memory_AllocateStream, (%esp)
	call	_Debug_SetWatermark
	.loc 1 55 0
	movl	$0, -12(%ebp)
	.loc 1 60 0
	cmpl	$0, 8(%ebp)
	je	L2
	.loc 1 62 0
	movl	16(%ebp), %eax
	cmpl	$1, %eax
	je	L4
	cmpl	$1, %eax
	jb	L5
	cmpl	$2, %eax
	je	L6
	jmp	L10
L5:
	.loc 1 65 0
	movl	8(%ebp), %eax
	movl	%eax, -16(%ebp)
	.loc 1 66 0
	movl	12(%ebp), %eax
	movl	%eax, 4(%esp)
	movl	-16(%ebp), %eax
	movl	%eax, (%esp)
	call	_AllocateByteStream
	.loc 1 67 0
	jmp	L8
L4:
	.loc 1 70 0
	movl	8(%ebp), %eax
	movl	%eax, -20(%ebp)
	.loc 1 71 0
	movl	12(%ebp), %eax
	movl	%eax, 4(%esp)
	movl	-20(%ebp), %eax
	movl	%eax, (%esp)
	call	_AllocateFloatStream
	.loc 1 72 0
	jmp	L8
L6:
	.loc 1 75 0
	movl	8(%ebp), %eax
	movl	%eax, -24(%ebp)
	.loc 1 76 0
	movl	12(%ebp), %eax
	movl	%eax, 4(%esp)
	movl	-24(%ebp), %eax
	movl	%eax, (%esp)
	call	_AllocateComplexStream
	.loc 1 77 0
	jmp	L8
L10:
	.loc 1 80 0
	movl	$9, -12(%ebp)
	.loc 1 81 0
	nop
	jmp	L8
L2:
	.loc 1 86 0
	movl	$1, -12(%ebp)
L8:
	.loc 1 89 0
	movl	-12(%ebp), %eax
	movl	%eax, (%esp)
	call	_Error_HandleErr
	.loc 1 90 0
	leave
	.cfi_restore 5
	.cfi_def_cfa 4, 4
	ret
	.cfi_endproc
LFE18:
	.globl	_Memory_FreeStream
	.def	_Memory_FreeStream;	.scl	2;	.type	32;	.endef
_Memory_FreeStream:
LFB19:
	.loc 1 102 0
	.cfi_startproc
	pushl	%ebp
	.cfi_def_cfa_offset 8
	.cfi_offset 5, -8
	movl	%esp, %ebp
	.cfi_def_cfa_register 5
	subl	$40, %esp
	.loc 1 103 0
	movl	$0, 4(%esp)
	movl	$_Memory_FreeStream, (%esp)
	call	_Debug_SetWatermark
	.loc 1 105 0
	movl	$0, -12(%ebp)
	.loc 1 110 0
	cmpl	$0, 8(%ebp)
	je	L12
	.loc 1 112 0
	movl	12(%ebp), %eax
	cmpl	$1, %eax
	je	L14
	cmpl	$1, %eax
	jb	L15
	cmpl	$2, %eax
	je	L16
	jmp	L20
L15:
	.loc 1 115 0
	movl	8(%ebp), %eax
	movl	%eax, -16(%ebp)
	.loc 1 116 0
	movl	-16(%ebp), %eax
	movl	%eax, (%esp)
	call	_FreeByteStream
	.loc 1 117 0
	jmp	L18
L14:
	.loc 1 120 0
	movl	8(%ebp), %eax
	movl	%eax, -20(%ebp)
	.loc 1 121 0
	movl	-20(%ebp), %eax
	movl	%eax, (%esp)
	call	_FreeFloatStream
	.loc 1 122 0
	jmp	L18
L16:
	.loc 1 125 0
	movl	8(%ebp), %eax
	movl	%eax, -24(%ebp)
	.loc 1 126 0
	movl	-24(%ebp), %eax
	movl	%eax, (%esp)
	call	_FreeComplexStream
	.loc 1 127 0
	jmp	L18
L20:
	.loc 1 130 0
	movl	$9, -12(%ebp)
	.loc 1 131 0
	nop
	jmp	L18
L12:
	.loc 1 136 0
	movl	$1, -12(%ebp)
L18:
	.loc 1 139 0
	movl	-12(%ebp), %eax
	movl	%eax, (%esp)
	call	_Error_HandleErr
	.loc 1 140 0
	leave
	.cfi_restore 5
	.cfi_def_cfa 4, 4
	ret
	.cfi_endproc
LFE19:
	.globl	_Memory_IsStreamValid
	.def	_Memory_IsStreamValid;	.scl	2;	.type	32;	.endef
_Memory_IsStreamValid:
LFB20:
	.loc 1 152 0
	.cfi_startproc
	pushl	%ebp
	.cfi_def_cfa_offset 8
	.cfi_offset 5, -8
	movl	%esp, %ebp
	.cfi_def_cfa_register 5
	subl	$40, %esp
	.loc 1 158 0
	movl	12(%ebp), %eax
	cmpl	$1, %eax
	je	L23
	cmpl	$1, %eax
	jb	L24
	cmpl	$2, %eax
	je	L25
	jmp	L28
L24:
	.loc 1 161 0
	movl	8(%ebp), %eax
	movl	%eax, -16(%ebp)
	.loc 1 162 0
	movl	-16(%ebp), %eax
	movl	%eax, (%esp)
	call	_IsByteStreamValid
	movb	%al, -9(%ebp)
	.loc 1 163 0
	jmp	L26
L23:
	.loc 1 166 0
	movl	8(%ebp), %eax
	movl	%eax, -20(%ebp)
	.loc 1 167 0
	movl	-20(%ebp), %eax
	movl	%eax, (%esp)
	call	_IsFloatStreamValid
	movb	%al, -9(%ebp)
	.loc 1 168 0
	jmp	L26
L25:
	.loc 1 171 0
	movl	8(%ebp), %eax
	movl	%eax, -24(%ebp)
	.loc 1 172 0
	movl	-24(%ebp), %eax
	movl	%eax, (%esp)
	call	_IsComplexStreamValid
	movb	%al, -9(%ebp)
	.loc 1 173 0
	jmp	L26
L28:
	.loc 1 176 0
	movb	$0, -9(%ebp)
	.loc 1 177 0
	nop
L26:
	.loc 1 180 0
	movzbl	-9(%ebp), %eax
	.loc 1 181 0
	leave
	.cfi_restore 5
	.cfi_def_cfa 4, 4
	ret
	.cfi_endproc
LFE20:
	.def	_AllocateByteStream;	.scl	3;	.type	32;	.endef
_AllocateByteStream:
LFB21:
	.loc 1 198 0
	.cfi_startproc
	pushl	%ebp
	.cfi_def_cfa_offset 8
	.cfi_offset 5, -8
	movl	%esp, %ebp
	.cfi_def_cfa_register 5
	subl	$40, %esp
	.loc 1 199 0
	movl	$1, 4(%esp)
	movl	$_AllocateByteStream, (%esp)
	call	_Debug_SetWatermark
	.loc 1 201 0
	movl	$0, -12(%ebp)
	.loc 1 203 0
	cmpl	$0, 8(%ebp)
	je	L30
	.loc 1 205 0
	movl	$1, 4(%esp)
	movl	12(%ebp), %eax
	movl	%eax, (%esp)
	call	_calloc
	movl	%eax, %edx
	movl	8(%ebp), %eax
	movl	%edx, (%eax)
	.loc 1 206 0
	movl	8(%ebp), %eax
	movl	(%eax), %eax
	testl	%eax, %eax
	jne	L31
	.loc 1 208 0
	movl	$8, -12(%ebp)
	jmp	L33
L31:
	.loc 1 212 0
	movl	8(%ebp), %eax
	movl	12(%ebp), %edx
	movl	%edx, 4(%eax)
	jmp	L33
L30:
	.loc 1 217 0
	movl	$1, -12(%ebp)
L33:
	.loc 1 220 0
	movl	-12(%ebp), %eax
	movl	%eax, (%esp)
	call	_Error_HandleErr
	.loc 1 221 0
	leave
	.cfi_restore 5
	.cfi_def_cfa 4, 4
	ret
	.cfi_endproc
LFE21:
	.def	_AllocateFloatStream;	.scl	3;	.type	32;	.endef
_AllocateFloatStream:
LFB22:
	.loc 1 233 0
	.cfi_startproc
	pushl	%ebp
	.cfi_def_cfa_offset 8
	.cfi_offset 5, -8
	movl	%esp, %ebp
	.cfi_def_cfa_register 5
	subl	$40, %esp
	.loc 1 234 0
	movl	$1, 4(%esp)
	movl	$_AllocateFloatStream, (%esp)
	call	_Debug_SetWatermark
	.loc 1 236 0
	movl	$0, -12(%ebp)
	.loc 1 238 0
	cmpl	$0, 8(%ebp)
	je	L36
	.loc 1 240 0
	movl	$4, 4(%esp)
	movl	12(%ebp), %eax
	movl	%eax, (%esp)
	call	_calloc
	movl	%eax, %edx
	movl	8(%ebp), %eax
	movl	%edx, (%eax)
	.loc 1 241 0
	movl	8(%ebp), %eax
	movl	(%eax), %eax
	testl	%eax, %eax
	jne	L37
	.loc 1 243 0
	movl	$8, -12(%ebp)
	jmp	L39
L37:
	.loc 1 247 0
	movl	8(%ebp), %eax
	movl	12(%ebp), %edx
	movl	%edx, 4(%eax)
	jmp	L39
L36:
	.loc 1 252 0
	movl	$1, -12(%ebp)
L39:
	.loc 1 255 0
	movl	-12(%ebp), %eax
	movl	%eax, (%esp)
	call	_Error_HandleErr
	.loc 1 256 0
	leave
	.cfi_restore 5
	.cfi_def_cfa 4, 4
	ret
	.cfi_endproc
LFE22:
	.def	_AllocateComplexStream;	.scl	3;	.type	32;	.endef
_AllocateComplexStream:
LFB23:
	.loc 1 268 0
	.cfi_startproc
	pushl	%ebp
	.cfi_def_cfa_offset 8
	.cfi_offset 5, -8
	movl	%esp, %ebp
	.cfi_def_cfa_register 5
	subl	$40, %esp
	.loc 1 269 0
	movl	$1, 4(%esp)
	movl	$_AllocateComplexStream, (%esp)
	call	_Debug_SetWatermark
	.loc 1 271 0
	movl	$0, -12(%ebp)
	.loc 1 273 0
	cmpl	$0, 8(%ebp)
	je	L42
	.loc 1 275 0
	movl	$8, 4(%esp)
	movl	12(%ebp), %eax
	movl	%eax, (%esp)
	call	_calloc
	movl	%eax, %edx
	movl	8(%ebp), %eax
	movl	%edx, (%eax)
	.loc 1 276 0
	movl	8(%ebp), %eax
	movl	(%eax), %eax
	testl	%eax, %eax
	jne	L43
	.loc 1 278 0
	movl	$8, -12(%ebp)
	jmp	L45
L43:
	.loc 1 282 0
	movl	8(%ebp), %eax
	movl	12(%ebp), %edx
	movl	%edx, 4(%eax)
	jmp	L45
L42:
	.loc 1 287 0
	movl	$1, -12(%ebp)
L45:
	.loc 1 290 0
	movl	-12(%ebp), %eax
	movl	%eax, (%esp)
	call	_Error_HandleErr
	.loc 1 291 0
	leave
	.cfi_restore 5
	.cfi_def_cfa 4, 4
	ret
	.cfi_endproc
LFE23:
	.def	_FreeByteStream;	.scl	3;	.type	32;	.endef
_FreeByteStream:
LFB24:
	.loc 1 302 0
	.cfi_startproc
	pushl	%ebp
	.cfi_def_cfa_offset 8
	.cfi_offset 5, -8
	movl	%esp, %ebp
	.cfi_def_cfa_register 5
	subl	$40, %esp
	.loc 1 303 0
	movl	$1, 4(%esp)
	movl	$_FreeByteStream, (%esp)
	call	_Debug_SetWatermark
	.loc 1 305 0
	movl	$0, -12(%ebp)
	.loc 1 307 0
	cmpl	$0, 8(%ebp)
	je	L48
	.loc 1 307 0 is_stmt 0 discriminator 1
	movl	8(%ebp), %eax
	movl	(%eax), %eax
	testl	%eax, %eax
	je	L48
	.loc 1 309 0 is_stmt 1
	movl	8(%ebp), %eax
	movl	(%eax), %eax
	movl	%eax, (%esp)
	call	_free
	.loc 1 310 0
	movl	8(%ebp), %eax
	movl	$0, (%eax)
	.loc 1 311 0
	movl	8(%ebp), %eax
	movl	$0, 4(%eax)
	jmp	L49
L48:
	.loc 1 315 0
	movl	$1, -12(%ebp)
L49:
	.loc 1 318 0
	movl	-12(%ebp), %eax
	movl	%eax, (%esp)
	call	_Error_HandleErr
	.loc 1 319 0
	leave
	.cfi_restore 5
	.cfi_def_cfa 4, 4
	ret
	.cfi_endproc
LFE24:
	.def	_FreeFloatStream;	.scl	3;	.type	32;	.endef
_FreeFloatStream:
LFB25:
	.loc 1 330 0
	.cfi_startproc
	pushl	%ebp
	.cfi_def_cfa_offset 8
	.cfi_offset 5, -8
	movl	%esp, %ebp
	.cfi_def_cfa_register 5
	subl	$40, %esp
	.loc 1 331 0
	movl	$1, 4(%esp)
	movl	$_FreeFloatStream, (%esp)
	call	_Debug_SetWatermark
	.loc 1 333 0
	movl	$0, -12(%ebp)
	.loc 1 335 0
	cmpl	$0, 8(%ebp)
	je	L52
	.loc 1 335 0 is_stmt 0 discriminator 1
	movl	8(%ebp), %eax
	movl	(%eax), %eax
	testl	%eax, %eax
	je	L52
	.loc 1 337 0 is_stmt 1
	movl	8(%ebp), %eax
	movl	(%eax), %eax
	movl	%eax, (%esp)
	call	_free
	.loc 1 338 0
	movl	8(%ebp), %eax
	movl	$0, (%eax)
	.loc 1 339 0
	movl	8(%ebp), %eax
	movl	$0, 4(%eax)
	jmp	L53
L52:
	.loc 1 343 0
	movl	$1, -12(%ebp)
L53:
	.loc 1 346 0
	movl	-12(%ebp), %eax
	movl	%eax, (%esp)
	call	_Error_HandleErr
	.loc 1 347 0
	leave
	.cfi_restore 5
	.cfi_def_cfa 4, 4
	ret
	.cfi_endproc
LFE25:
	.def	_FreeComplexStream;	.scl	3;	.type	32;	.endef
_FreeComplexStream:
LFB26:
	.loc 1 358 0
	.cfi_startproc
	pushl	%ebp
	.cfi_def_cfa_offset 8
	.cfi_offset 5, -8
	movl	%esp, %ebp
	.cfi_def_cfa_register 5
	subl	$40, %esp
	.loc 1 359 0
	movl	$1, 4(%esp)
	movl	$_FreeComplexStream, (%esp)
	call	_Debug_SetWatermark
	.loc 1 361 0
	movl	$0, -12(%ebp)
	.loc 1 363 0
	cmpl	$0, 8(%ebp)
	je	L56
	.loc 1 363 0 is_stmt 0 discriminator 1
	movl	8(%ebp), %eax
	movl	(%eax), %eax
	testl	%eax, %eax
	je	L56
	.loc 1 365 0 is_stmt 1
	movl	8(%ebp), %eax
	movl	(%eax), %eax
	movl	%eax, (%esp)
	call	_free
	.loc 1 366 0
	movl	8(%ebp), %eax
	movl	$0, (%eax)
	.loc 1 367 0
	movl	8(%ebp), %eax
	movl	$0, 4(%eax)
	jmp	L57
L56:
	.loc 1 371 0
	movl	$1, -12(%ebp)
L57:
	.loc 1 374 0
	movl	-12(%ebp), %eax
	movl	%eax, (%esp)
	call	_Error_HandleErr
	.loc 1 375 0
	leave
	.cfi_restore 5
	.cfi_def_cfa 4, 4
	ret
	.cfi_endproc
LFE26:
	.def	_IsByteStreamValid;	.scl	3;	.type	32;	.endef
_IsByteStreamValid:
LFB27:
	.loc 1 387 0
	.cfi_startproc
	pushl	%ebp
	.cfi_def_cfa_offset 8
	.cfi_offset 5, -8
	movl	%esp, %ebp
	.cfi_def_cfa_register 5
	subl	$40, %esp
	.loc 1 388 0
	movl	$1, 4(%esp)
	movl	$_IsByteStreamValid, (%esp)
	call	_Debug_SetWatermark
	.loc 1 390 0
	movb	$0, -9(%ebp)
	.loc 1 392 0
	cmpl	$0, 8(%ebp)
	je	L60
	.loc 1 393 0 discriminator 1
	movl	8(%ebp), %eax
	movl	(%eax), %eax
	.loc 1 392 0 discriminator 1
	testl	%eax, %eax
	je	L60
	.loc 1 394 0
	movl	8(%ebp), %eax
	movl	4(%eax), %eax
	.loc 1 393 0
	testl	%eax, %eax
	je	L60
	.loc 1 396 0
	movb	$1, -9(%ebp)
L60:
	.loc 1 399 0
	movzbl	-9(%ebp), %eax
	.loc 1 400 0
	leave
	.cfi_restore 5
	.cfi_def_cfa 4, 4
	ret
	.cfi_endproc
LFE27:
	.def	_IsFloatStreamValid;	.scl	3;	.type	32;	.endef
_IsFloatStreamValid:
LFB28:
	.loc 1 412 0
	.cfi_startproc
	pushl	%ebp
	.cfi_def_cfa_offset 8
	.cfi_offset 5, -8
	movl	%esp, %ebp
	.cfi_def_cfa_register 5
	subl	$40, %esp
	.loc 1 413 0
	movl	$1, 4(%esp)
	movl	$_IsFloatStreamValid, (%esp)
	call	_Debug_SetWatermark
	.loc 1 415 0
	movb	$0, -9(%ebp)
	.loc 1 417 0
	cmpl	$0, 8(%ebp)
	je	L63
	.loc 1 418 0 discriminator 1
	movl	8(%ebp), %eax
	movl	(%eax), %eax
	.loc 1 417 0 discriminator 1
	testl	%eax, %eax
	je	L63
	.loc 1 419 0
	movl	8(%ebp), %eax
	movl	4(%eax), %eax
	.loc 1 418 0
	testl	%eax, %eax
	je	L63
	.loc 1 421 0
	movb	$1, -9(%ebp)
L63:
	.loc 1 424 0
	movzbl	-9(%ebp), %eax
	.loc 1 425 0
	leave
	.cfi_restore 5
	.cfi_def_cfa 4, 4
	ret
	.cfi_endproc
LFE28:
	.def	_IsComplexStreamValid;	.scl	3;	.type	32;	.endef
_IsComplexStreamValid:
LFB29:
	.loc 1 437 0
	.cfi_startproc
	pushl	%ebp
	.cfi_def_cfa_offset 8
	.cfi_offset 5, -8
	movl	%esp, %ebp
	.cfi_def_cfa_register 5
	subl	$40, %esp
	.loc 1 438 0
	movl	$1, 4(%esp)
	movl	$_IsComplexStreamValid, (%esp)
	call	_Debug_SetWatermark
	.loc 1 440 0
	movb	$0, -9(%ebp)
	.loc 1 442 0
	cmpl	$0, 8(%ebp)
	je	L66
	.loc 1 443 0 discriminator 1
	movl	8(%ebp), %eax
	movl	(%eax), %eax
	.loc 1 442 0 discriminator 1
	testl	%eax, %eax
	je	L66
	.loc 1 444 0
	movl	8(%ebp), %eax
	movl	4(%eax), %eax
	.loc 1 443 0
	testl	%eax, %eax
	je	L66
	.loc 1 446 0
	movb	$1, -9(%ebp)
L66:
	.loc 1 449 0
	movzbl	-9(%ebp), %eax
	.loc 1 450 0
	leave
	.cfi_restore 5
	.cfi_def_cfa 4, 4
	ret
	.cfi_endproc
LFE29:
Letext0:
	.file 2 "c:/mingw/include/stdio.h"
	.file 3 "c:/mingw/include/stdint.h"
	.file 4 "c:/mingw/include/stdlib.h"
	.file 5 "c:/mingw/include/time.h"
	.file 6 "src/system.h"
	.file 7 "src/error.h"
	.file 8 "src/memory.h"
	.file 9 "src/debug.h"