	.file	"modulation.c"
	.text
Ltext0:
	.globl	_Modulation_ListParameters
	.def	_Modulation_ListParameters;	.scl	2;	.type	32;	.endef
_Modulation_ListParameters:
LFB18:
	.file 1 "src/modulation.c"
	.loc 1 43 0
	.cfi_startproc
	pushl	%ebp
	.cfi_def_cfa_offset 8
	.cfi_offset 5, -8
	movl	%esp, %ebp
	.cfi_def_cfa_register 5
	subl	$40, %esp
	.loc 1 44 0
	movl	$0, -12(%ebp)
	.loc 1 46 0
	cmpl	$0, 8(%ebp)
	je	L2
	.loc 1 48 0
	movl	8(%ebp), %eax
	movl	$0, (%eax)
	.loc 1 49 0
	movl	8(%ebp), %eax
	movb	$4, 4(%eax)
	.loc 1 50 0
	movl	8(%ebp), %eax
	movb	$2, 5(%eax)
	.loc 1 51 0
	movl	8(%ebp), %eax
	flds	LC0
	fstps	8(%eax)
	jmp	L3
L2:
	.loc 1 55 0
	movl	$1, -12(%ebp)
L3:
	.loc 1 58 0
	movl	-12(%ebp), %eax
	movl	%eax, (%esp)
	call	_Error_HandleErr
	.loc 1 59 0
	leave
	.cfi_restore 5
	.cfi_def_cfa 4, 4
	ret
	.cfi_endproc
LFE18:
	.globl	_Modulation_Mapper
	.def	_Modulation_Mapper;	.scl	2;	.type	32;	.endef
_Modulation_Mapper:
LFB19:
	.loc 1 72 0
	.cfi_startproc
	pushl	%ebp
	.cfi_def_cfa_offset 8
	.cfi_offset 5, -8
	movl	%esp, %ebp
	.cfi_def_cfa_register 5
	pushl	%esi
	pushl	%ebx
	subl	$80, %esp
	.cfi_offset 6, -12
	.cfi_offset 3, -16
	.loc 1 73 0
	movl	$0, -12(%ebp)
	.loc 1 75 0
	movl	8(%ebp), %eax
	movl	4(%eax), %eax
	sall	$3, %eax
	movl	%eax, -24(%ebp)
	.loc 1 76 0
	movl	$0, -16(%ebp)
	.loc 1 78 0
	movb	$0, -17(%ebp)
	.loc 1 79 0
	movb	$0, -18(%ebp)
	.loc 1 83 0
	cmpl	$0, 8(%ebp)
	je	L6
	.loc 1 83 0 is_stmt 0 discriminator 1
	cmpl	$0, 12(%ebp)
	je	L6
	.loc 1 83 0 discriminator 2
	cmpl	$0, 16(%ebp)
	je	L6
	.loc 1 85 0 is_stmt 1
	movl	16(%ebp), %eax
	movl	%eax, 4(%esp)
	leal	-68(%ebp), %eax
	movl	%eax, (%esp)
	call	_GetMappingTable
	.loc 1 87 0
	jmp	L7
L13:
	.loc 1 89 0
	movzbl	-18(%ebp), %eax
	addl	$1, %eax
	movb	%al, -18(%ebp)
	.loc 1 90 0
	movl	-16(%ebp), %eax
	shrl	$3, %eax
	movl	%eax, -28(%ebp)
	.loc 1 91 0
	movl	-16(%ebp), %eax
	notl	%eax
	andl	$7, %eax
	movb	%al, -29(%ebp)
	.loc 1 92 0
	movl	8(%ebp), %eax
	movl	(%eax), %edx
	movl	-28(%ebp), %eax
	addl	%edx, %eax
	movzbl	(%eax), %eax
	movzbl	%al, %edx
	movzbl	-29(%ebp), %eax
	movl	%eax, %ecx
	sarl	%cl, %edx
	movl	%edx, %eax
	andl	$1, %eax
	movl	%eax, %ebx
	movl	16(%ebp), %eax
	movzbl	5(%eax), %eax
	movzbl	%al, %edx
	movzbl	-18(%ebp), %eax
	subl	%eax, %edx
	movl	%edx, %eax
	movl	%eax, %ecx
	sall	%cl, %ebx
	movl	%ebx, %eax
	orb	%al, -17(%ebp)
	.loc 1 93 0
	movl	16(%ebp), %eax
	movzbl	5(%eax), %eax
	cmpb	-18(%ebp), %al
	jne	L8
	.loc 1 95 0
	movb	$0, -19(%ebp)
	jmp	L9
L12:
	.loc 1 97 0
	movzbl	-19(%ebp), %eax
	movzbl	-68(%ebp,%eax), %eax
	movzbl	%al, %edx
	movsbl	-17(%ebp), %eax
	cmpl	%eax, %edx
	jne	L10
	.loc 1 99 0
	movl	12(%ebp), %eax
	movl	(%eax), %ecx
	movl	-16(%ebp), %eax
	leal	1(%eax), %ebx
	movl	16(%ebp), %eax
	movzbl	5(%eax), %eax
	movzbl	%al, %esi
	movl	%ebx, %eax
	movl	$0, %edx
	divl	%esi
	addl	$536870911, %eax
	sall	$3, %eax
	addl	%eax, %ecx
	movzbl	-19(%ebp), %eax
	movl	-60(%ebp,%eax,8), %edx
	movl	-64(%ebp,%eax,8), %eax
	movl	%eax, (%ecx)
	movl	%edx, 4(%ecx)
	.loc 1 100 0
	jmp	L11
L10:
	.loc 1 95 0 discriminator 2
	movzbl	-19(%ebp), %eax
	addl	$1, %eax
	movb	%al, -19(%ebp)
L9:
	.loc 1 95 0 is_stmt 0 discriminator 1
	movl	16(%ebp), %eax
	movzbl	4(%eax), %eax
	cmpb	-19(%ebp), %al
	ja	L12
L11:
	.loc 1 103 0 is_stmt 1
	movb	$0, -18(%ebp)
	.loc 1 104 0
	movb	$0, -17(%ebp)
L8:
	.loc 1 106 0
	addl	$1, -16(%ebp)
L7:
	.loc 1 87 0
	movl	-16(%ebp), %eax
	cmpl	-24(%ebp), %eax
	jb	L13
	.loc 1 83 0
	jmp	L14
L6:
	.loc 1 111 0
	movl	$1, -12(%ebp)
L14:
	.loc 1 114 0
	movl	-12(%ebp), %eax
	movl	%eax, (%esp)
	call	_Error_HandleErr
	.loc 1 115 0
	addl	$80, %esp
	popl	%ebx
	.cfi_restore 3
	popl	%esi
	.cfi_restore 6
	popl	%ebp
	.cfi_restore 5
	.cfi_def_cfa 4, 4
	ret
	.cfi_endproc
LFE19:
	.def	_GetMappingTable;	.scl	3;	.type	32;	.endef
_GetMappingTable:
LFB20:
	.loc 1 133 0
	.cfi_startproc
	pushl	%ebp
	.cfi_def_cfa_offset 8
	.cfi_offset 5, -8
	movl	%esp, %ebp
	.cfi_def_cfa_register 5
	subl	$40, %esp
	.loc 1 134 0
	movl	$0, -12(%ebp)
	.loc 1 136 0
	cmpl	$0, 8(%ebp)
	je	L17
	.loc 1 136 0 is_stmt 0 discriminator 1
	cmpl	$0, 12(%ebp)
	je	L17
	.loc 1 138 0 is_stmt 1
	movl	12(%ebp), %eax
	movl	(%eax), %eax
	testl	%eax, %eax
	je	L19
	cmpl	$1, %eax
	je	L20
	jmp	L24
L19:
	.loc 1 141 0
	movl	12(%ebp), %eax
	movl	%eax, 4(%esp)
	movl	8(%ebp), %eax
	movl	%eax, (%esp)
	call	_GetPskTable
	.loc 1 142 0
	jmp	L21
L20:
	.loc 1 145 0
	movl	12(%ebp), %eax
	movl	%eax, 4(%esp)
	movl	8(%ebp), %eax
	movl	%eax, (%esp)
	call	_GetQamTable
	.loc 1 146 0
	jmp	L21
L24:
	.loc 1 149 0
	movl	$8, -12(%ebp)
	.loc 1 150 0
	nop
L21:
	.loc 1 152 0
	jmp	L22
L17:
	.loc 1 155 0
	movl	$1, -12(%ebp)
L22:
	.loc 1 158 0
	movl	-12(%ebp), %eax
	movl	%eax, (%esp)
	call	_Error_HandleErr
	.loc 1 159 0
	leave
	.cfi_restore 5
	.cfi_def_cfa 4, 4
	ret
	.cfi_endproc
LFE20:
	.def	_GetPskTable;	.scl	3;	.type	32;	.endef
_GetPskTable:
LFB21:
	.loc 1 171 0
	.cfi_startproc
	pushl	%ebp
	.cfi_def_cfa_offset 8
	.cfi_offset 5, -8
	movl	%esp, %ebp
	.cfi_def_cfa_register 5
	pushl	%esi
	pushl	%ebx
	subl	$48, %esp
	.cfi_offset 6, -12
	.cfi_offset 3, -16
	.loc 1 171 0
	movl	%esp, %eax
	movl	%eax, %esi
	.loc 1 172 0
	movl	$0, -12(%ebp)
	.loc 1 173 0
	movl	12(%ebp), %eax
	movzbl	4(%eax), %eax
	movzbl	%al, %eax
	subl	$1, %eax
	movl	%eax, -20(%ebp)
	movl	12(%ebp), %eax
	movzbl	4(%eax), %eax
	movzbl	%al, %eax
	movl	$16, %edx
	subl	$1, %edx
	addl	%edx, %eax
	movl	$16, %ecx
	movl	$0, %edx
	divl	%ecx
	imull	$16, %eax, %eax
	call	___chkstk_ms
	subl	%eax, %esp
	leal	8(%esp), %eax
	addl	$0, %eax
	movl	%eax, -24(%ebp)
	.loc 1 176 0
	cmpl	$0, 8(%ebp)
	je	L26
	.loc 1 176 0 is_stmt 0 discriminator 1
	cmpl	$0, 12(%ebp)
	je	L26
	.loc 1 178 0 is_stmt 1
	movl	-24(%ebp), %eax
	movl	12(%ebp), %edx
	movl	%edx, 4(%esp)
	movl	%eax, (%esp)
	call	_GetGraySequence
	.loc 1 180 0
	movb	$0, -13(%ebp)
	jmp	L27
L28:
	.loc 1 182 0 discriminator 3
	movzbl	-13(%ebp), %eax
	movzbl	-13(%ebp), %edx
	movl	-24(%ebp), %ecx
	movzbl	(%ecx,%edx), %ecx
	movl	8(%ebp), %edx
	movb	%cl, (%edx,%eax)
	.loc 1 183 0 discriminator 3
	movzbl	-13(%ebp), %ebx
	movl	12(%ebp), %eax
	flds	8(%eax)
	movzbl	-13(%ebp), %eax
	movl	%eax, -32(%ebp)
	fildl	-32(%ebp)
	fldl	LC2
	fmulp	%st, %st(1)
	movl	12(%ebp), %eax
	movzbl	4(%eax), %eax
	movzbl	%al, %eax
	movl	%eax, -32(%ebp)
	fildl	-32(%ebp)
	fdivrp	%st, %st(1)
	faddp	%st, %st(1)
	fstpl	(%esp)
	call	_cos
	fstps	-28(%ebp)
	flds	-28(%ebp)
	movl	8(%ebp), %eax
	fstps	4(%eax,%ebx,8)
	.loc 1 184 0 discriminator 3
	movzbl	-13(%ebp), %ebx
	movl	12(%ebp), %eax
	flds	8(%eax)
	movzbl	-13(%ebp), %eax
	movl	%eax, -32(%ebp)
	fildl	-32(%ebp)
	fldl	LC2
	fmulp	%st, %st(1)
	movl	12(%ebp), %eax
	movzbl	4(%eax), %eax
	movzbl	%al, %eax
	movl	%eax, -32(%ebp)
	fildl	-32(%ebp)
	fdivrp	%st, %st(1)
	faddp	%st, %st(1)
	fstpl	(%esp)
	call	_sin
	fstps	-28(%ebp)
	flds	-28(%ebp)
	movl	8(%ebp), %eax
	fstps	8(%eax,%ebx,8)
	.loc 1 180 0 discriminator 3
	movzbl	-13(%ebp), %eax
	addl	$1, %eax
	movb	%al, -13(%ebp)
L27:
	.loc 1 180 0 is_stmt 0 discriminator 1
	movl	12(%ebp), %eax
	movzbl	4(%eax), %eax
	cmpb	-13(%ebp), %al
	ja	L28
	.loc 1 176 0 is_stmt 1
	jmp	L29
L26:
	.loc 1 189 0
	movl	$1, -12(%ebp)
L29:
	.loc 1 192 0
	movl	-12(%ebp), %eax
	movl	%eax, (%esp)
	call	_Error_HandleErr
	movl	%esi, %esp
	.loc 1 193 0
	leal	-8(%ebp), %esp
	popl	%ebx
	.cfi_restore 3
	popl	%esi
	.cfi_restore 6
	popl	%ebp
	.cfi_restore 5
	.cfi_def_cfa 4, 4
	ret
	.cfi_endproc
LFE21:
	.def	_GetQamTable;	.scl	3;	.type	32;	.endef
_GetQamTable:
LFB22:
	.loc 1 205 0
	.cfi_startproc
	pushl	%ebp
	.cfi_def_cfa_offset 8
	.cfi_offset 5, -8
	movl	%esp, %ebp
	.cfi_def_cfa_register 5
	pushl	%esi
	pushl	%ebx
	subl	$80, %esp
	.cfi_offset 6, -12
	.cfi_offset 3, -16
	.loc 1 205 0
	movl	%esp, %eax
	movl	%eax, %esi
	.loc 1 206 0
	movl	$0, -12(%ebp)
	.loc 1 207 0
	movl	12(%ebp), %eax
	movzbl	4(%eax), %eax
	movzbl	%al, %eax
	subl	$1, %eax
	movl	%eax, -20(%ebp)
	movl	12(%ebp), %eax
	movzbl	4(%eax), %eax
	movzbl	%al, %eax
	movl	$16, %edx
	subl	$1, %edx
	addl	%edx, %eax
	movl	$16, %ebx
	movl	$0, %edx
	divl	%ebx
	imull	$16, %eax, %eax
	call	___chkstk_ms
	subl	%eax, %esp
	leal	16(%esp), %eax
	addl	$0, %eax
	movl	%eax, -24(%ebp)
	.loc 1 209 0
	movl	12(%ebp), %eax
	movzbl	5(%eax), %eax
	shrb	%al
	movzbl	%al, %eax
	movl	$1, %edx
	movl	%eax, %ecx
	sall	%cl, %edx
	movl	%edx, %eax
	subl	$1, %eax
	movb	%al, -25(%ebp)
	.loc 1 210 0
	movl	12(%ebp), %eax
	movzbl	4(%eax), %eax
	movzbl	%al, %eax
	movw	%ax, -64(%ebp)
	filds	-64(%ebp)
	fstpl	(%esp)
	call	_sqrt
	fnstcw	-46(%ebp)
	movzwl	-46(%ebp), %eax
	movb	$12, %ah
	movw	%ax, -48(%ebp)
	fldcw	-48(%ebp)
	fistps	-50(%ebp)
	fldcw	-46(%ebp)
	movzwl	-50(%ebp), %eax
	movb	%al, -26(%ebp)
	.loc 1 213 0
	cmpl	$0, 8(%ebp)
	je	L32
	.loc 1 213 0 is_stmt 0 discriminator 1
	cmpl	$0, 12(%ebp)
	je	L32
	.loc 1 215 0 is_stmt 1
	movl	-24(%ebp), %eax
	movl	12(%ebp), %edx
	movl	%edx, 4(%esp)
	movl	%eax, (%esp)
	call	_GetGraySequence
	.loc 1 217 0
	movb	$0, -13(%ebp)
	jmp	L33
L34:
	.loc 1 219 0 discriminator 3
	movzbl	-26(%ebp), %edx
	movzbl	-13(%ebp), %eax
	movl	%edx, 4(%esp)
	movl	%eax, (%esp)
	call	_div
	movl	%eax, -36(%ebp)
	movl	%edx, -32(%ebp)
	.loc 1 220 0 discriminator 3
	movzbl	-13(%ebp), %eax
	movzbl	-13(%ebp), %edx
	movl	-24(%ebp), %ecx
	movzbl	(%ecx,%edx), %ecx
	movl	8(%ebp), %edx
	movb	%cl, (%edx,%eax)
	.loc 1 221 0 discriminator 3
	movzbl	-13(%ebp), %ebx
	movl	-32(%ebp), %eax
	leal	(%eax,%eax), %edx
	movzbl	-25(%ebp), %eax
	subl	%eax, %edx
	movl	%edx, %eax
	movl	%eax, -64(%ebp)
	fildl	-64(%ebp)
	fstpl	-64(%ebp)
	movl	-36(%ebp), %eax
	addl	$1, %eax
	movl	%eax, -56(%ebp)
	fildl	-56(%ebp)
	fstpl	8(%esp)
	fld1
	fchs
	fstpl	(%esp)
	call	_pow
	fmull	-64(%ebp)
	fstps	-44(%ebp)
	flds	-44(%ebp)
	movl	8(%ebp), %eax
	fstps	4(%eax,%ebx,8)
	.loc 1 222 0 discriminator 3
	movzbl	-13(%ebp), %edx
	movzbl	-25(%ebp), %eax
	movl	-36(%ebp), %ecx
	addl	%ecx, %ecx
	subl	%ecx, %eax
	movl	%eax, -64(%ebp)
	fildl	-64(%ebp)
	movl	8(%ebp), %eax
	fstps	8(%eax,%edx,8)
	.loc 1 217 0 discriminator 3
	movzbl	-13(%ebp), %eax
	addl	$1, %eax
	movb	%al, -13(%ebp)
L33:
	.loc 1 217 0 is_stmt 0 discriminator 1
	movl	12(%ebp), %eax
	movzbl	4(%eax), %eax
	cmpb	-13(%ebp), %al
	ja	L34
	.loc 1 213 0 is_stmt 1
	jmp	L35
L32:
	.loc 1 227 0
	movl	$1, -12(%ebp)
L35:
	.loc 1 230 0
	movl	-12(%ebp), %eax
	movl	%eax, (%esp)
	call	_Error_HandleErr
	movl	%esi, %esp
	.loc 1 231 0
	leal	-8(%ebp), %esp
	popl	%ebx
	.cfi_restore 3
	popl	%esi
	.cfi_restore 6
	popl	%ebp
	.cfi_restore 5
	.cfi_def_cfa 4, 4
	ret
	.cfi_endproc
LFE22:
	.def	_GetGraySequence;	.scl	3;	.type	32;	.endef
_GetGraySequence:
LFB23:
	.loc 1 243 0
	.cfi_startproc
	pushl	%ebp
	.cfi_def_cfa_offset 8
	.cfi_offset 5, -8
	movl	%esp, %ebp
	.cfi_def_cfa_register 5
	pushl	%esi
	pushl	%ebx
	subl	$32, %esp
	.cfi_offset 6, -12
	.cfi_offset 3, -16
	.loc 1 244 0
	movl	$0, -12(%ebp)
	.loc 1 250 0
	cmpl	$0, 8(%ebp)
	je	L38
	.loc 1 250 0 is_stmt 0 discriminator 1
	cmpl	$0, 12(%ebp)
	je	L38
	.loc 1 252 0 is_stmt 1
	movl	12(%ebp), %eax
	movzbl	4(%eax), %eax
	movzbl	%al, %eax
	movl	%eax, 8(%esp)
	movl	$0, 4(%esp)
	movl	8(%ebp), %eax
	movl	%eax, (%esp)
	call	_memset
	.loc 1 254 0
	movb	$0, -13(%ebp)
	jmp	L39
L44:
	.loc 1 256 0
	movl	12(%ebp), %eax
	movzbl	4(%eax), %eax
	movzbl	%al, %edx
	movzbl	-13(%ebp), %eax
	movl	%eax, %ecx
	sarl	%cl, %edx
	movl	%edx, %eax
	movb	%al, -16(%ebp)
	.loc 1 257 0
	movl	12(%ebp), %eax
	movzbl	5(%eax), %eax
	subb	-13(%ebp), %al
	subl	$1, %eax
	movb	%al, -17(%ebp)
	.loc 1 258 0
	movb	$0, -14(%ebp)
	.loc 1 259 0
	movzbl	-16(%ebp), %eax
	shrb	%al
	movb	%al, -15(%ebp)
	.loc 1 260 0
	jmp	L40
L43:
	.loc 1 262 0
	movzbl	-15(%ebp), %edx
	movl	8(%ebp), %eax
	addl	%eax, %edx
	movzbl	-15(%ebp), %ecx
	movl	8(%ebp), %eax
	addl	%ecx, %eax
	movzbl	(%eax), %eax
	movl	%eax, %esi
	movzbl	-17(%ebp), %eax
	movl	$1, %ebx
	movl	%eax, %ecx
	sall	%cl, %ebx
	movl	%ebx, %eax
	orl	%esi, %eax
	movb	%al, (%edx)
	.loc 1 263 0
	movzbl	-14(%ebp), %eax
	movzbl	-16(%ebp), %edx
	subl	$1, %edx
	cmpl	%edx, %eax
	jge	L41
	.loc 1 265 0
	movzbl	-14(%ebp), %eax
	addl	$1, %eax
	movb	%al, -14(%ebp)
	jmp	L42
L41:
	.loc 1 269 0
	movb	$0, -14(%ebp)
	.loc 1 270 0
	movzbl	-16(%ebp), %eax
	addb	%al, -15(%ebp)
L42:
	.loc 1 272 0
	movzbl	-15(%ebp), %eax
	addl	$1, %eax
	movb	%al, -15(%ebp)
L40:
	.loc 1 260 0
	movl	12(%ebp), %eax
	movzbl	4(%eax), %eax
	cmpb	-15(%ebp), %al
	ja	L43
	.loc 1 254 0 discriminator 2
	movzbl	-13(%ebp), %eax
	addl	$1, %eax
	movb	%al, -13(%ebp)
L39:
	.loc 1 254 0 is_stmt 0 discriminator 1
	movl	12(%ebp), %eax
	movzbl	5(%eax), %eax
	cmpb	-13(%ebp), %al
	ja	L44
	.loc 1 250 0 is_stmt 1
	jmp	L45
L38:
	.loc 1 278 0
	movl	$1, -12(%ebp)
L45:
	.loc 1 281 0
	movl	-12(%ebp), %eax
	movl	%eax, (%esp)
	call	_Error_HandleErr
	.loc 1 282 0
	addl	$32, %esp
	popl	%ebx
	.cfi_restore 3
	popl	%esi
	.cfi_restore 6
	popl	%ebp
	.cfi_restore 5
	.cfi_def_cfa 4, 4
	ret
	.cfi_endproc
LFE23:
	.section .rdata,"dr"
	.align 4
LC0:
	.long	1061752795
	.align 8
LC2:
	.long	1413754136
	.long	1075388923
	.text
Letext0:
	.file 2 "c:/mingw/include/stdio.h"
	.file 3 "c:/mingw/include/stdint.h"
	.file 4 "c:/mingw/include/stdlib.h"
	.file 5 "c:/mingw/include/time.h"
	.file 6 "src/system.h"
	.file 7 "src/error.h"
	.file 8 "src/memory.h"
	.file 9 "src/modulation.h"